(dp0
S'10 /home/speedy/test/source2slice/NVD/CVE_2007_6151_PATCHED_isdn_ioctl.c snprintf 379'
p1
I0
sS'295 /home/speedy/test/source2slice/NVD/CVE_2013_4933_VULN_netmon_open.c memcmp 28'
p2
I0
sS'251 /home/speedy/test/source2slice/NVD/CVE_2009_2484_VULN_Win32AddConnection.c sprintf 41'
p3
I1
sS'304 /home/speedy/test/source2slice/NVD/CVE_2015_3813_VULN_fragment_add_work.c memcmp 290'
p4
I0
sS'586 /home/speedy/test/source2slice/NVD/CVE_2013_5642_PATCHED_process_sdp.c strcmp 225'
p5
I0
sS'625 /home/speedy/test/source2slice/NVD/CVE_2015_1158_PATCHED_cupsdProcessIPPRequest.c strcmp 116'
p6
I0
sS'243 /home/speedy/test/source2slice/NVD/CVE-2016-7042_VULN_proc_keys_show.c sprintf 64'
p7
I1
sS'23 /home/speedy/test/source2slice/NVD/CVE_2014_3182_PATCHED_logi_dj_recv_add_djhid_device.c snprintf 49'
p8
I0
sS'477 /home/speedy/test/source2slice/NVD/CVE_2014_4174_VULN_libpcap_dump.c memcpy 71'
p9
I1
sS'358 /home/speedy/test/source2slice/NVD/CVE_2008_0420_PATCHED_nsBMPDecoder__ProcessData.c memcpy 30'
p10
I0
sS'378 /home/speedy/test/source2slice/NVD/CVE_2008_5134_PATCHED_lbs_process_bss.c memcpy 171'
p11
I0
sS'507 /home/speedy/test/source2slice/NVD/CVE_2007_6151_PATCHED_isdn_ioctl.c strchr 251'
p12
I0
sS'189 /home/speedy/test/source2slice/NVD/CVE_2015_0833_VULN_NS_main.c fprintf 184'
p13
I0
sS'127 /home/speedy/test/source2slice/NVD/CVE_2014_2894_PATCHED_cmd_smart.c memset 68'
p14
I0
sS'389 /home/speedy/test/source2slice/NVD/CVE_2008_5134_VULN_lbs_process_bss.c memcpy 125'
p15
I1
sS'138 /home/speedy/test/source2slice/NVD/CVE_2014_3640_VULN_udp_input.c memset 58'
p16
I0
sS'85 /home/speedy/test/source2slice/NVD/CVE_2008_3915_VULN_init_state.c memset 6'
p17
I0
sS'440 /home/speedy/test/source2slice/NVD/CVE_2013_7266_PATCHED_mISDN_sock_recvmsg.c memcpy 50'
p18
I0
sS'664 /home/speedy/test/source2slice/NVD/CVE_2015_1158_VULN_print_job.c strcmp 152'
p19
I0
sS'436 /home/speedy/test/source2slice/NVD/CVE_2013_7023_VULN_ff_combine_frame.c memcpy 44'
p20
I1
sS'235 /home/speedy/test/source2slice/NVD/CVE_2014_3537_PATCHED_get_file.c strlen 116'
p21
I0
sS'402 /home/speedy/test/source2slice/NVD/CVE_2009_4005_PATCHED_collect_rx_frame.c memcpy 23'
p22
I0
sS'350 /home/speedy/test/source2slice/NVD/CVE_2006_6106_VULN_cmtp_recv_interopmsg.c memcpy 52'
p23
I0
sS'746 /home/speedy/test/source2slice/NVD/CVE_2015_0833_PATCHED_NS_main.c getenv 165'
p24
I0
sS'236 /home/speedy/test/source2slice/NVD/CVE_2014_3537_VULN_get_file.c strlen 125'
p25
I1
sS'332 /home/speedy/test/source2slice/NVD/CVE-2016-5238_VULN_get_cmd.c memcpy 14'
p26
I0
sS'614 /home/speedy/test/source2slice/NVD/CVE_2015_1158_PATCHED_add_job.c strcmp 549'
p27
I0
sS'679 /home/speedy/test/source2slice/NVD/CVE_2004_1151_VULN_sys32_ni_syscall.c strcpy 8'
p28
I1
sS'176 /home/speedy/test/source2slice/NVD/CVE_2014_3640_VULN_udp_input.c strerror 158'
p29
I1
sS'737 /home/speedy/test/source2slice/NVD/CVE_2015_1158_VULN_print_job.c sscanf 92'
p30
I0
sS'207 /home/speedy/test/source2slice/NVD/CVE_2007_6151_VULN_isdn_ioctl.c strlen 377'
p31
I1
sS'210 /home/speedy/test/source2slice/NVD/CVE_2007_6151_VULN_isdn_ioctl.c strlen 121'
p32
I0
sS'388 /home/speedy/test/source2slice/NVD/CVE_2008_5134_VULN_lbs_process_bss.c memcpy 149'
p33
I1
sS'96 /home/speedy/test/source2slice/NVD/CVE_2010_2803_PATCHED_drm_ioctl.c memset 69'
p34
I0
sS'471 /home/speedy/test/source2slice/NVD/CVE_2014_3511_VULN_ssl23_get_client_hello.c memcpy 364'
p35
I1
sS'661 /home/speedy/test/source2slice/NVD/CVE_2015_1158_VULN_cupsdProcessIPPRequest.c strcmp 126'
p36
I0
sS'600 /home/speedy/test/source2slice/NVD/CVE_2014_3523_VULN_winnt_accept.c strcmp 46'
p37
I0
sS'305 /home/speedy/test/source2slice/NVD/CVE-2016-2328_VULN_bayer_to_yv12_wrapper.c copy 47'
p38
I1
sS'553 /home/speedy/test/source2slice/NVD/CVE-2015-0811_VULN_read_tag_lutType.c malloc 44'
p39
I1
sS'548 /home/speedy/test/source2slice/NVD/CVE_2013_7008_VULN_decode_slice_header.c assert 345'
p40
I0
sS'620 /home/speedy/test/source2slice/NVD/CVE_2015_1158_PATCHED_authenticate_job.c strcmp 35'
p41
I0
sS'106 /home/speedy/test/source2slice/NVD/CVE_2013_5642_VULN_process_sdp.c memset 85'
p42
I0
sS'757 /home/speedy/test/source2slice/NVD/CVE_2015_0833_VULN_UpdateThreadFunc.c getenv 54'
p43
I0
sS'146 /home/speedy/test/source2slice/NVD/CVE_2014_5272_PATCHED_decode_frame.c memset 143'
p44
I0
sS'434 /home/speedy/test/source2slice/NVD/CVE_2013_7023_PATCHED_ff_combine_frame.c memcpy 48'
p45
I0
sS'711 /home/speedy/test/source2slice/NVD/CVE_2013_5642_PATCHED_process_sdp.c sscanf 211'
p46
I0
sS'357 /home/speedy/test/source2slice/NVD/CVE_2008_0420_PATCHED_nsBMPDecoder__ProcessData.c memcpy 128'
p47
I0
sS'237 /home/speedy/test/source2slice/NVD/CVE_2014_3537_VULN_get_file.c strlen 95'
p48
I1
sS'252 /home/speedy/test/source2slice/NVD/CVE_2009_2768_PATCHED_load_flat_shared_library.c sprintf 8'
p49
I0
sS'159 /home/speedy/test/source2slice/NVD/CVE_2014_5272_VULN_decode_frame.c memset 94'
p50
I0
sS'277 /home/speedy/test/source2slice/NVD/CVE_2009_1439_VULN_CIFSTCon.c strncpy 151'
p51
I0
sS'348 /home/speedy/test/source2slice/NVD/CVE_2006_2935_VULN_dvd_read_bca.c memcpy 21'
p52
I1
sS'385 /home/speedy/test/source2slice/NVD/CVE_2008_5134_VULN_lbs_process_bss.c memcpy 198'
p53
I0
sS'198 /home/speedy/test/source2slice/NVD/CVE_2007_6151_PATCHED_isdn_ioctl.c strlen 383'
p54
I0
sS'460 /home/speedy/test/source2slice/NVD/CVE_2014_3183_PATCHED_logi_dj_ll_raw_request.c memcpy 23'
p55
I0
sS'411 /home/speedy/test/source2slice/NVD/CVE_2010_2537_VULN_btrfs_ioctl_clone.c memcpy 187'
p56
I1
sS'68 /home/speedy/test/source2slice/NVD/CVE_2006_2448_PATCHED_restore_sigcontext.c memset 58'
p57
I0
sS'450 /home/speedy/test/source2slice/NVD/CVE_2014_0160_VULN_dtls1_process_heartbeat.c memcpy 34'
p58
I1
sS'633 /home/speedy/test/source2slice/NVD/CVE_2015_1158_PATCHED_send_document.c strcmp 343'
p59
I0
sS'204 /home/speedy/test/source2slice/NVD/CVE_2007_6151_VULN_isdn_ioctl.c strlen 407'
p60
I0
sS'709 /home/speedy/test/source2slice/NVD/CVE_2013_5642_PATCHED_process_sdp.c sscanf 245'
p61
I0
sS'276 /home/speedy/test/source2slice/NVD/CVE_2009_1439_PATCHED_CIFSTCon.c strncpy 122'
p62
I0
sS'168 /home/speedy/test/source2slice/NVD/CVE_2015_3339_VULN_prepare_binprm.c memset 40'
p63
I1
sS'685 /home/speedy/test/source2slice/NVD/CVE_2008_1390_VULN_generic_http_callback.c strcpy 105'
p64
I1
sS'608 /home/speedy/test/source2slice/NVD/CVE_2015_1158_PATCHED_add_job.c strcmp 582'
p65
I0
sS'753 /home/speedy/test/source2slice/NVD/CVE_2015_0833_VULN_NS_main.c getenv 165'
p66
I0
sS'432 /home/speedy/test/source2slice/NVD/CVE_2013_7011_VULN_read_header.c memcpy 180'
p67
I1
sS'403 /home/speedy/test/source2slice/NVD/CVE_2009_4005_VULN_collect_rx_frame.c memcpy 23'
p68
I0
sS'4 /home/speedy/test/source2slice/NVD/CVE_2015_0833_VULN_NS_main.c fclose 185'
p69
I0
sS'340 /home/speedy/test/source2slice/NVD/CVE_2006_1525_PATCHED_inet_rtm_getroute.c memcpy 30'
p70
I0
sS'492 /home/speedy/test/source2slice/NVD/CVE_2014_5472_PATCHED_isofs_read_inode.c memcpy 40'
p71
I0
sS'567 /home/speedy/test/source2slice/NVD/CVE_2008_5134_PATCHED_lbs_process_bss.c memmove 133'
p72
I0
sS'478 /home/speedy/test/source2slice/NVD/CVE_2014_4654_PATCHED_snd_ctl_elem_add.c memcpy 29'
p73
I0
sS'723 /home/speedy/test/source2slice/NVD/CVE_2013_5642_VULN_process_sdp.c sscanf 192'
p74
I0
sS'70 /home/speedy/test/source2slice/NVD/CVE_2006_4813_PATCHED___block_prepare_write.c memset 108'
p75
I0
sS'46 /home/speedy/test/source2slice/NVD/CVE_2015_1158_PATCHED_print_job.c snprintf 225'
p76
I0
sS'268 /home/speedy/test/source2slice/NVD/CVE_2010_2431_VULN_cupsFileOpen.c open 37'
p77
I0
sS'596 /home/speedy/test/source2slice/NVD/CVE_2014_3523_PATCHED_winnt_accept.c strcmp 48'
p78
I0
sS'494 /home/speedy/test/source2slice/NVD/CVE_2014_5472_VULN_isofs_read_inode.c memcpy 40'
p79
I0
sS'185 /home/speedy/test/source2slice/NVD/CVE_2015_0833_PATCHED_NS_main.c fprintf 322'
p80
I0
sS'428 /home/speedy/test/source2slice/NVD/CVE_2013_7008_PATCHED_decode_slice_header.c memcpy 625'
p81
I0
sS'589 /home/speedy/test/source2slice/NVD/CVE_2013_5642_PATCHED_process_sdp.c strcmp 171'
p82
I0
sS'297 /home/speedy/test/source2slice/NVD/CVE_2013_7008_PATCHED_decode_slice_header.c memcmp 484'
p83
I0
sS'708 /home/speedy/test/source2slice/NVD/CVE_2013_5642_PATCHED_process_sdp.c sscanf 263'
p84
I0
sS'593 /home/speedy/test/source2slice/NVD/CVE_2013_5642_VULN_process_sdp.c strcmp 173'
p85
I0
sS'221 /home/speedy/test/source2slice/NVD/CVE_2008_1390_VULN_generic_http_callback.c strlen 103'
p86
I1
sS'219 /home/speedy/test/source2slice/NVD/CVE_2008_1390_VULN_generic_http_callback.c strlen 106'
p87
I1
sS'129 /home/speedy/test/source2slice/NVD/CVE_2014_2894_VULN_cmd_smart.c memset 123'
p88
I0
sS'72 /home/speedy/test/source2slice/NVD/CVE_2006_4813_PATCHED___block_prepare_write.c memset 51'
p89
I0
sS'244 /home/speedy/test/source2slice/NVD/CVE-2016-7042_VULN_proc_keys_show.c sprintf 62'
p90
I1
sS'211 /home/speedy/test/source2slice/NVD/CVE_2007_6151_VULN_isdn_ioctl.c strlen 102'
p91
I0
sS'391 /home/speedy/test/source2slice/NVD/CVE_2008_5134_VULN_lbs_process_bss.c memcpy 103'
p92
I1
sS'69 /home/speedy/test/source2slice/NVD/CVE_2006_2448_VULN_restore_sigcontext.c memset 56'
p93
I0
sS'218 /home/speedy/test/source2slice/NVD/CVE_2008_1390_VULN_generic_http_callback.c strlen 107'
p94
I1
sS'624 /home/speedy/test/source2slice/NVD/CVE_2015_1158_PATCHED_cupsdProcessIPPRequest.c strcmp 126'
p95
I0
sS'49 /home/speedy/test/source2slice/NVD/CVE_2015_1158_PATCHED_send_document.c snprintf 271'
p96
I0
sS'615 /home/speedy/test/source2slice/NVD/CVE_2015_1158_PATCHED_add_job.c strcmp 488'
p97
I0
sS'103 /home/speedy/test/source2slice/NVD/CVE_2013_5642_PATCHED_process_sdp.c memset 336'
p98
I0
sS'233 /home/speedy/test/source2slice/NVD/CVE_2014_1690_VULN_help.c strlen 36'
p99
I1
sS'572 /home/speedy/test/source2slice/NVD/CVE_2010_2537_VULN_btrfs_ioctl_clone.c memmove 257'
p100
I1
sS'52 /home/speedy/test/source2slice/NVD/CVE_2015_1158_VULN_print_job.c snprintf 229'
p101
I0
sS'234 /home/speedy/test/source2slice/NVD/CVE_2014_3537_PATCHED_get_file.c strlen 146'
p102
I0
sS'710 /home/speedy/test/source2slice/NVD/CVE_2013_5642_PATCHED_process_sdp.c sscanf 211'
p103
I0
sS'307 /home/speedy/test/source2slice/NVD/CVE_2007_1217_PATCHED_bufprint.c vsnprintf 32'
p104
I0
sS'546 /home/speedy/test/source2slice/NVD/CVE_2013_7008_VULN_decode_slice_header.c assert 347'
p105
I0
sS'172 /home/speedy/test/source2slice/NVD/CVE_2008_1390_VULN_generic_http_callback.c strdup 125'
p106
I1
sS'481 /home/speedy/test/source2slice/NVD/CVE_2014_4655_VULN_snd_ctl_elem_add.c memcpy 36'
p107
I1
sS'370 /home/speedy/test/source2slice/NVD/CVE_2008_3527_PATCHED_sysenter_setup.c memcpy 18'
p108
I0
sS'693 /home/speedy/test/source2slice/NVD/CVE_2009_2484_VULN_Win32AddConnection.c LoadLibrary 12'
p109
I0
sS'531 /home/speedy/test/source2slice/NVD/CVE_2014_3537_VULN_get_file.c strchr 23'
p110
I0
sS'158 /home/speedy/test/source2slice/NVD/CVE_2014_5272_VULN_decode_frame.c memset 124'
p111
I0
sS'565 /home/speedy/test/source2slice/NVD/CVE_2013_6378_VULN_lbs_debugfs_write.c strstr 25'
p112
I1
sS'163 /home/speedy/test/source2slice/NVD/CVE_2014_5272_VULN_decode_frame.c memset 44'
p113
I0
sS'485 /home/speedy/test/source2slice/NVD/CVE_2014_5272_VULN_decode_frame.c memcpy 111'
p114
I0
sS'76 /home/speedy/test/source2slice/NVD/CVE_2006_6106_PATCHED_cmtp_recv_interopmsg.c memset 109'
p115
I0
sS'310 /home/speedy/test/source2slice/NVD/CVE_2015_1159_PATCHED_cgi_puts.c fputs 16'
p116
I0
sS'373 /home/speedy/test/source2slice/NVD/CVE_2008_3527_VULN_sysenter_setup.c memcpy 11'
p117
I1
sS'58 /home/speedy/test/source2slice/NVD/CVE-2015-1872_VULN_ff_mjpeg_decode_sof.c memset 66'
p118
I1
sS'580 /home/speedy/test/source2slice/NVD/CVE_2007_6151_VULN_isdn_ioctl.c strcmp 412'
p119
I1
sS'461 /home/speedy/test/source2slice/NVD/CVE_2014_3183_VULN_logi_dj_ll_raw_request.c memcpy 23'
p120
I1
sS'667 /home/speedy/test/source2slice/NVD/CVE_2015_1158_VULN_print_job.c strcmp 51'
p121
I0
sS'638 /home/speedy/test/source2slice/NVD/CVE_2015_1158_VULN_add_job.c strcmp 661'
p122
I1
sS'588 /home/speedy/test/source2slice/NVD/CVE_2013_5642_PATCHED_process_sdp.c strcmp 173'
p123
I0
sS'241 /home/speedy/test/source2slice/NVD/CVE_2015_0833_PATCHED_NS_main.c execv 14'
p124
I0
sS'303 /home/speedy/test/source2slice/NVD/CVE_2015_3813_PATCHED_fragment_add_work.c memcmp 292'
p125
I0
sS'200 /home/speedy/test/source2slice/NVD/CVE_2007_6151_PATCHED_isdn_ioctl.c strlen 335'
p126
I0
sS'152 /home/speedy/test/source2slice/NVD/CVE_2014_5272_PATCHED_decode_frame.c memset 47'
p127
I0
sS'124 /home/speedy/test/source2slice/NVD/CVE_2014_2739_VULN_cma_req_handler.c memset 23'
p128
I0
sS'41 /home/speedy/test/source2slice/NVD/CVE_2014_3537_VULN_get_file.c snprintf 40'
p129
I1
sS'662 /home/speedy/test/source2slice/NVD/CVE_2015_1158_VULN_cupsdProcessIPPRequest.c strcmp 116'
p130
I0
sS'110 /home/speedy/test/source2slice/NVD/CVE_2013_7008_PATCHED_decode_slice_header.c memset 386'
p131
I0
sS'164 /home/speedy/test/source2slice/NVD/CVE_2014_5272_VULN_decode_frame.c memset 35'
p132
I0
sS'692 /home/speedy/test/source2slice/NVD/CVE_2009_2484_PATCHED_Win32AddConnection.c LoadLibrary 12'
p133
I0
sS'263 /home/speedy/test/source2slice/NVD/CVE_2015_0833_VULN_NS_main.c free 488'
p134
I1
sS'610 /home/speedy/test/source2slice/NVD/CVE_2015_1158_PATCHED_add_job.c strcmp 564'
p135
I0
sS'292 /home/speedy/test/source2slice/NVD/CVE_2010_0307_VULN_load_elf_binary.c memcmp 34'
p136
I0
sS'597 /home/speedy/test/source2slice/NVD/CVE_2014_3523_PATCHED_winnt_accept.c strcmp 46'
p137
I0
sS'663 /home/speedy/test/source2slice/NVD/CVE_2015_1158_VULN_print_job.c strcmp 152'
p138
I0
sS'143 /home/speedy/test/source2slice/NVD/CVE_2014_5163_PATCHED_decode_apn.c memset 8'
p139
I0
sS'20 /home/speedy/test/source2slice/NVD/CVE_2013_5641_VULN_handle_incoming.c snprintf 130'
p140
I0
sS'528 /home/speedy/test/source2slice/NVD/CVE_2014_3537_VULN_get_file.c strchr 78'
p141
I1
sS'687 /home/speedy/test/source2slice/NVD/CVE_2009_1439_PATCHED_CIFSTCon.c strcpy 87'
p142
I0
sS'167 /home/speedy/test/source2slice/NVD/CVE_2015_3339_PATCHED_prepare_binprm.c memset 13'
p143
I0
sS'577 /home/speedy/test/source2slice/NVD/CVE_2007_6151_PATCHED_isdn_ioctl.c strcmp 415'
p144
I0
sS'668 /home/speedy/test/source2slice/NVD/CVE_2015_1158_VULN_release_job.c strcmp 24'
p145
I0
sS'107 /home/speedy/test/source2slice/NVD/CVE_2013_6380_PATCHED_aac_send_raw_srb.c memset 42'
p146
I0
sS'556 /home/speedy/test/source2slice/NVD/CVE_2008_1390_PATCHED_generic_http_callback.c malloc 108'
p147
I0
sS'582 /home/speedy/test/source2slice/NVD/CVE_2007_6151_VULN_isdn_ioctl.c strcmp 254'
p148
I0
sS'426 /home/speedy/test/source2slice/NVD/CVE_2013_6381_PATCHED_qeth_snmp_command.c memcpy 42'
p149
I0
sS'435 /home/speedy/test/source2slice/NVD/CVE_2013_7023_PATCHED_ff_combine_frame.c memcpy 30'
p150
I0
sS'735 /home/speedy/test/source2slice/NVD/CVE_2015_1158_PATCHED_send_document.c sscanf 179'
p151
I0
sS'604 /home/speedy/test/source2slice/NVD/CVE_2015_1158_PATCHED_add_job.c strcmp 603'
p152
I0
sS'334 /home/speedy/test/source2slice/NVD/CVE-2016-7042_VULN_proc_keys_show.c memcpy 49'
p153
I1
sS'363 /home/speedy/test/source2slice/NVD/CVE_2008_0420_VULN_nsBMPDecoder__ProcessData.c memcpy 12'
p154
I0
sS'514 /home/speedy/test/source2slice/NVD/CVE_2010_1224_PATCHED_ast_append_ha.c strchr 29'
p155
I0
sS'299 /home/speedy/test/source2slice/NVD/CVE_2014_4652_PATCHED_snd_ctl_elem_user_tlv.c memcmp 20'
p156
I0
sS'140 /home/speedy/test/source2slice/NVD/CVE_2014_4654_VULN_snd_ctl_elem_add.c memset 20'
p157
I1
sS'43 /home/speedy/test/source2slice/NVD/CVE_2014_3537_VULN_get_file.c snprintf 24'
p158
I0
sS'265 /home/speedy/test/source2slice/NVD/CVE_2008_1390_VULN_generic_http_callback.c rand 33'
p159
I1
sS'141 /home/speedy/test/source2slice/NVD/CVE_2014_4655_PATCHED_snd_ctl_elem_add.c memset 18'
p160
I0
sS'254 /home/speedy/test/source2slice/NVD/CVE_2010_1488_PATCHED_proc_oom_score.c sprintf 11'
p161
I0
sS'652 /home/speedy/test/source2slice/NVD/CVE_2015_1158_VULN_add_job.c strcmp 526'
p162
I1
sS'48 /home/speedy/test/source2slice/NVD/CVE_2015_1158_PATCHED_send_document.c snprintf 304'
p163
I0
sS'415 /home/speedy/test/source2slice/NVD/CVE_2010_3429_PATCHED_flic_decode_frame_8BPP.c memcpy 265'
p164
I0
sS'427 /home/speedy/test/source2slice/NVD/CVE_2013_6381_VULN_qeth_snmp_command.c memcpy 38'
p165
I1
sS'726 /home/speedy/test/source2slice/NVD/CVE_2014_2286_PATCHED_ast_http_manid_from_vars.c sscanf 9'
p166
I0
sS'212 /home/speedy/test/source2slice/NVD/CVE_2008_1390_PATCHED_generic_http_callback.c strlen 112'
p167
I0
sS'530 /home/speedy/test/source2slice/NVD/CVE_2014_3537_VULN_get_file.c strchr 46'
p168
I0
sS'690 /home/speedy/test/source2slice/NVD/CVE_2015_0833_PATCHED_NS_main.c fopen 182'
p169
I0
sS'712 /home/speedy/test/source2slice/NVD/CVE_2013_5642_PATCHED_process_sdp.c sscanf 192'
p170
I0
sS'392 /home/speedy/test/source2slice/NVD/CVE_2008_5134_VULN_lbs_process_bss.c memcpy 95'
p171
I1
sS'15 /home/speedy/test/source2slice/NVD/CVE_2009_4308_VULN_ext4_decode_error.c snprintf 25'
p172
I0
sS'634 /home/speedy/test/source2slice/NVD/CVE_2015_1158_PATCHED_send_document.c strcmp 212'
p173
I0
sS'325 /home/speedy/test/source2slice/NVD/CVE-2015-5158_VULN_scsi_req_parse_cdb.c memcpy 23'
p174
I1
sS'209 /home/speedy/test/source2slice/NVD/CVE_2007_6151_VULN_isdn_ioctl.c strlen 249'
p175
I0
sS'522 /home/speedy/test/source2slice/NVD/CVE_2014_3537_PATCHED_get_file.c strchr 143'
p176
I0
sS'636 /home/speedy/test/source2slice/NVD/CVE_2015_1158_PATCHED_send_document.c strcmp 137'
p177
I0
sS'356 /home/speedy/test/source2slice/NVD/CVE_2008_0420_PATCHED_nsBMPDecoder__ProcessData.c memcpy 155'
p178
I0
sS'316 /home/speedy/test/source2slice/NVD/CVE_2015_1159_VULN_cgi_puts.c fputs 46'
p179
I1
sS'562 /home/speedy/test/source2slice/NVD/CVE_2008_0420_VULN_nsBMPDecoder__ProcessData.c calloc 248'
p180
I1
sS'466 /home/speedy/test/source2slice/NVD/CVE_2014_3509_VULN_ssl_parse_serverhello_tlsext.c memcpy 174'
p181
I1
sS'54 /home/speedy/test/source2slice/NVD/CVE_2015_1158_VULN_send_document.c snprintf 308'
p182
I0
sS'12 /home/speedy/test/source2slice/NVD/CVE_2008_1390_VULN_generic_http_callback.c snprintf 62'
p183
I1
sS'322 /home/speedy/test/source2slice/NVD/CVE_2015_1159_VULN_cgi_puts.c fputs 17'
p184
I1
sS'483 /home/speedy/test/source2slice/NVD/CVE_2014_5272_PATCHED_decode_frame.c memcpy 105'
p185
I0
sS'98 /home/speedy/test/source2slice/NVD/CVE_2010_3429_PATCHED_flic_decode_frame_8BPP.c memset 212'
p186
I0
sS'570 /home/speedy/test/source2slice/NVD/CVE_2008_5134_VULN_lbs_process_bss.c memmove 110'
p187
I1
sS'30 /home/speedy/test/source2slice/NVD/CVE_2014_3537_PATCHED_get_file.c snprintf 44'
p188
I0
sS'654 /home/speedy/test/source2slice/NVD/CVE_2015_1158_VULN_add_job.c strcmp 197'
p189
I1
sS'429 /home/speedy/test/source2slice/NVD/CVE_2013_7008_VULN_decode_slice_header.c memcpy 625'
p190
I0
sS'544 /home/speedy/test/source2slice/NVD/CVE_2013_7008_PATCHED_decode_slice_header.c assert 253'
p191
I0
sS'274 /home/speedy/test/source2slice/NVD/CVE_2006_6106_VULN_cmtp_recv_interopmsg.c strncpy 65'
p192
I0
sS'240 /home/speedy/test/source2slice/NVD/CVE_2015_3008_PATCHED_handle_tcptls_connection.c strlen 88'
p193
I0
sS'33 /home/speedy/test/source2slice/NVD/CVE_2014_3537_PATCHED_get_file.c snprintf 26'
p194
I0
sS'114 /home/speedy/test/source2slice/NVD/CVE_2013_7011_VULN_read_header.c memset 7'
p195
I1
sS'550 /home/speedy/test/source2slice/NVD/CVE_2013_7008_VULN_decode_slice_header.c assert 253'
p196
I0
sS'469 /home/speedy/test/source2slice/NVD/CVE_2014_3511_PATCHED_ssl23_get_client_hello.c memcpy 268'
p197
I0
sS'574 /home/speedy/test/source2slice/NVD/CVE_2010_2538_VULN_btrfs_ioctl_clone.c memmove 257'
p198
I1
sS'379 /home/speedy/test/source2slice/NVD/CVE_2008_5134_PATCHED_lbs_process_bss.c memcpy 149'
p199
I0
sS'330 /home/speedy/test/source2slice/NVD/CVE-2016-2330_VULN_gif_image_write_image.c memcpy 93'
p200
I0
sS'598 /home/speedy/test/source2slice/NVD/CVE_2014_3523_VULN_winnt_accept.c strcmp 50'
p201
I0
sS'629 /home/speedy/test/source2slice/NVD/CVE_2015_1158_PATCHED_print_job.c strcmp 127'
p202
I0
sS'253 /home/speedy/test/source2slice/NVD/CVE_2009_2768_VULN_load_flat_shared_library.c sprintf 8'
p203
I1
sS'136 /home/speedy/test/source2slice/NVD/CVE_2014_3523_VULN_winnt_accept.c memset 413'
p204
I0
sS'346 /home/speedy/test/source2slice/NVD/CVE_2006_1525_VULN_inet_rtm_getroute.c memcpy 23'
p205
I0
sS'422 /home/speedy/test/source2slice/NVD/CVE_2013_6380_PATCHED_aac_send_raw_srb.c memcpy 180'
p206
I0
sS'637 /home/speedy/test/source2slice/NVD/CVE_2015_1158_PATCHED_send_document.c strcmp 46'
p207
I0
sS'191 /home/speedy/test/source2slice/NVD/CVE_2005_3356_PATCHED_sys_mq_open.c strlen 17'
p208
I0
sS'226 /home/speedy/test/source2slice/NVD/CVE_2009_1439_VULN_CIFSTCon.c strlen 91'
p209
I0
sS'445 /home/speedy/test/source2slice/NVD/CVE_2013_7268_VULN_ipx_recvmsg.c memcpy 23'
p210
I0
sS'717 /home/speedy/test/source2slice/NVD/CVE_2013_5642_VULN_process_sdp.c sscanf 290'
p211
I0
sS'689 /home/speedy/test/source2slice/NVD/CVE_2009_1439_VULN_CIFSTCon.c strcpy 87'
p212
I0
sS'16 /home/speedy/test/source2slice/NVD/CVE_2013_5641_PATCHED_handle_incoming.c snprintf 168'
p213
I0
sS'182 /home/speedy/test/source2slice/NVD/CVE_2014_3509_VULN_ssl_parse_serverhello_tlsext.c fprintf 77'
p214
I1
sS'458 /home/speedy/test/source2slice/NVD/CVE_2014_2099_VULN_msrle_decode_frame.c memcpy 25'
p215
I0
sS'205 /home/speedy/test/source2slice/NVD/CVE_2007_6151_VULN_isdn_ioctl.c strlen 383'
p216
I1
sS'80 /home/speedy/test/source2slice/NVD/CVE_2008_0420_PATCHED_nsBMPDecoder__ProcessData.c memset 281'
p217
I0
sS'499 /home/speedy/test/source2slice/NVD/CVE_2015_3811_VULN_wcp_uncompress.c memcpy 180'
p218
I0
sS'576 /home/speedy/test/source2slice/NVD/CVE_2004_1151_VULN_sys32_ni_syscall.c strcmp 5'
p219
I1
sS'519 /home/speedy/test/source2slice/NVD/CVE_2013_6378_PATCHED_lbs_debugfs_write.c strchr 32'
p220
I0
sS'246 /home/speedy/test/source2slice/NVD/CVE-2016-7042_VULN_proc_keys_show.c sprintf 58'
p221
I1
sS'750 /home/speedy/test/source2slice/NVD/CVE_2015_0833_PATCHED_UpdateThreadFunc.c getenv 89'
p222
I0
sS'166 /home/speedy/test/source2slice/NVD/CVE_2015_0833_VULN_NS_main.c memset 476'
p223
I1
sS'442 /home/speedy/test/source2slice/NVD/CVE_2013_7268_PATCHED_ipx_recvmsg.c memcpy 58'
p224
I0
sS'532 /home/speedy/test/source2slice/NVD/CVE_2015_4652_PATCHED_de_bcd_num.c strchr 50'
p225
I0
sS'732 /home/speedy/test/source2slice/NVD/CVE_2015_1158_PATCHED_print_job.c sscanf 109'
p226
I0
sS'192 /home/speedy/test/source2slice/NVD/CVE_2005_3356_VULN_sys_mq_open.c strlen 17'
p227
I1
sS'147 /home/speedy/test/source2slice/NVD/CVE_2014_5272_PATCHED_decode_frame.c memset 133'
p228
I0
sS'456 /home/speedy/test/source2slice/NVD/CVE_2014_2099_PATCHED_msrle_decode_frame.c memcpy 22'
p229
I0
sS'375 /home/speedy/test/source2slice/NVD/CVE_2008_4302_VULN_pipe_to_file.c memcpy 69'
p230
I0
sS'38 /home/speedy/test/source2slice/NVD/CVE_2014_3537_VULN_get_file.c snprintf 64'
p231
I1
sS'487 /home/speedy/test/source2slice/NVD/CVE_2014_5272_VULN_decode_frame.c memcpy 64'
p232
I0
sS'479 /home/speedy/test/source2slice/NVD/CVE_2014_4654_VULN_snd_ctl_elem_add.c memcpy 36'
p233
I1
sS'128 /home/speedy/test/source2slice/NVD/CVE_2014_2894_PATCHED_cmd_smart.c memset 48'
p234
I0
sS'339 /home/speedy/test/source2slice/NVD/CVE_2006_1525_PATCHED_inet_rtm_getroute.c memcpy 51'
p235
I0
sS'394 /home/speedy/test/source2slice/NVD/CVE_2009_0746_PATCHED_make_indexed_dir.c memcpy 52'
p236
I0
sS'231 /home/speedy/test/source2slice/NVD/CVE_2013_5642_VULN_process_sdp.c strlen 721'
p237
I1
sS'599 /home/speedy/test/source2slice/NVD/CVE_2014_3523_VULN_winnt_accept.c strcmp 48'
p238
I0
sS'351 /home/speedy/test/source2slice/NVD/CVE_2007_1217_PATCHED_bufprint.c memcpy 24'
p239
I0
sS'35 /home/speedy/test/source2slice/NVD/CVE_2014_3537_PATCHED_get_file.c snprintf 22'
p240
I0
sS'262 /home/speedy/test/source2slice/NVD/CVE_2015_0833_PATCHED_NS_main.c free 488'
p241
I0
sS'178 /home/speedy/test/source2slice/NVD/CVE_2014_3640_VULN_udp_input.c strerror 119'
p242
I1
sS'22 /home/speedy/test/source2slice/NVD/CVE_2014_1690_PATCHED_help.c snprintf 54'
p243
I0
sS'104 /home/speedy/test/source2slice/NVD/CVE_2013_5642_PATCHED_process_sdp.c memset 85'
p244
I0
sS'90 /home/speedy/test/source2slice/NVD/CVE_2009_2484_PATCHED_Win32AddConnection.c memset 27'
p245
I0
sS'50 /home/speedy/test/source2slice/NVD/CVE_2015_1158_PATCHED_send_document.c snprintf 245'
p246
I0
sS'306 /home/speedy/test/source2slice/NVD/CVE-2016-2328_VULN_bayer_to_yv12_wrapper.c copy 33'
p247
I1
sS'691 /home/speedy/test/source2slice/NVD/CVE_2015_0833_VULN_NS_main.c fopen 182'
p248
I0
sS'594 /home/speedy/test/source2slice/NVD/CVE_2013_5642_VULN_process_sdp.c strcmp 171'
p249
I0
sS'630 /home/speedy/test/source2slice/NVD/CVE_2015_1158_PATCHED_print_job.c strcmp 51'
p250
I0
sS'224 /home/speedy/test/source2slice/NVD/CVE_2009_1439_PATCHED_CIFSTCon.c strlen 91'
p251
I0
sS'371 /home/speedy/test/source2slice/NVD/CVE_2008_3527_PATCHED_sysenter_setup.c memcpy 12'
p252
I0
sS'670 /home/speedy/test/source2slice/NVD/CVE_2015_1158_VULN_send_document.c strcmp 347'
p253
I0
sS'261 /home/speedy/test/source2slice/NVD/CVE_2008_1390_VULN_generic_http_callback.c free 112'
p254
I1
sS'505 /home/speedy/test/source2slice/NVD/CVE_2010_2431_VULN_cupsFileOpen.c close 87'
p255
I1
sS'635 /home/speedy/test/source2slice/NVD/CVE_2015_1158_PATCHED_send_document.c strcmp 212'
p256
I0
sS'183 /home/speedy/test/source2slice/NVD/CVE_2014_3509_VULN_ssl_parse_serverhello_tlsext.c fprintf 76'
p257
I1
sS'647 /home/speedy/test/source2slice/NVD/CVE_2015_1158_VULN_add_job.c strcmp 602'
p258
I1
sS'430 /home/speedy/test/source2slice/NVD/CVE_2013_7011_PATCHED_read_header.c memcpy 197'
p259
I0
sS'65 /home/speedy/test/source2slice/NVD/CVE-2016-8658_VULN_brcmf_cfg80211_start_ap.c memset 37'
p260
I0
sS'646 /home/speedy/test/source2slice/NVD/CVE_2015_1158_VULN_add_job.c strcmp 620'
p261
I1
sS'71 /home/speedy/test/source2slice/NVD/CVE_2006_4813_PATCHED___block_prepare_write.c memset 54'
p262
I0
sS'511 /home/speedy/test/source2slice/NVD/CVE_2009_2484_PATCHED_Win32AddConnection.c strchr 33'
p263
I0
sS'302 /home/speedy/test/source2slice/NVD/CVE_2015_3331_VULN___driver_rfc4106_decrypt.c memcmp 64'
p264
I0
sS'300 /home/speedy/test/source2slice/NVD/CVE_2014_4652_VULN_snd_ctl_elem_user_tlv.c memcmp 19'
p265
I0
sS'695 /home/speedy/test/source2slice/NVD/CVE_2008_1390_VULN_generic_http_callback.c sscanf 15'
p266
I0
sS'702 /home/speedy/test/source2slice/NVD/CVE_2013_5641_VULN_handle_incoming.c sscanf 68'
p267
I0
sS'137 /home/speedy/test/source2slice/NVD/CVE_2014_3640_PATCHED_udp_input.c memset 58'
p268
I0
sS'17 /home/speedy/test/source2slice/NVD/CVE_2013_5641_PATCHED_handle_incoming.c snprintf 130'
p269
I0
sS'296 /home/speedy/test/source2slice/NVD/CVE_2013_4933_VULN_netmon_open.c memcmp 28'
p270
I0
sS'744 /home/speedy/test/source2slice/NVD/CVE_2015_0833_PATCHED_NS_main.c getenv 877'
p271
I0
sS'298 /home/speedy/test/source2slice/NVD/CVE_2013_7008_VULN_decode_slice_header.c memcmp 484'
p272
I0
sS'57 /home/speedy/test/source2slice/NVD/CVE-2015-1872_VULN_ff_mjpeg_decode_sof.c memset 373'
p273
I1
sS'94 /home/speedy/test/source2slice/NVD/CVE_2010_0437_PATCHED_ip6_dst_lookup_tail.c memset 50'
p274
I0
sS'134 /home/speedy/test/source2slice/NVD/CVE_2014_3511_VULN_ssl23_get_client_hello.c memset 251'
p275
I1
sS'417 /home/speedy/test/source2slice/NVD/CVE_2010_3429_VULN_flic_decode_frame_8BPP.c memcpy 261'
p276
I1
sS'267 /home/speedy/test/source2slice/NVD/CVE_2010_2431_VULN_cupsFileOpen.c open 41'
p277
I1
sS'715 /home/speedy/test/source2slice/NVD/CVE_2013_5642_VULN_process_sdp.c sscanf 308'
p278
I0
sS'592 /home/speedy/test/source2slice/NVD/CVE_2013_5642_VULN_process_sdp.c strcmp 223'
p279
I0
sS'269 /home/speedy/test/source2slice/NVD/CVE_2010_2431_VULN_cupsFileOpen.c open 33'
p280
I1
sS'606 /home/speedy/test/source2slice/NVD/CVE_2015_1158_PATCHED_add_job.c strcmp 582'
p281
I0
sS'177 /home/speedy/test/source2slice/NVD/CVE_2014_3640_VULN_udp_input.c strerror 157'
p282
I1
sS'387 /home/speedy/test/source2slice/NVD/CVE_2008_5134_VULN_lbs_process_bss.c memcpy 171'
p283
I1
sS'535 /home/speedy/test/source2slice/NVD/CVE_2008_1390_PATCHED_generic_http_callback.c alloca 66'
p284
I0
sS'239 /home/speedy/test/source2slice/NVD/CVE_2015_0253_VULN_read_request_line.c strlen 88'
p285
I0
sS'660 /home/speedy/test/source2slice/NVD/CVE_2015_1158_VULN_cupsdProcessIPPRequest.c strcmp 136'
p286
I0
sS'92 /home/speedy/test/source2slice/NVD/CVE_2009_4307_PATCHED_ext4_fill_flex_info.c memset 28'
p287
I0
sS'465 /home/speedy/test/source2slice/NVD/CVE_2014_3509_PATCHED_ssl_parse_serverhello_tlsext.c memcpy 73'
p288
I0
sS'409 /home/speedy/test/source2slice/NVD/CVE_2010_2521_VULN_read_buf.c memcpy 27'
p289
I1
sS'453 /home/speedy/test/source2slice/NVD/CVE_2014_1509_VULN__cairo_dwrite_load_truetype_table.c memcpy 27'
p290
I1
sS'27 /home/speedy/test/source2slice/NVD/CVE_2014_3537_PATCHED_get_file.c snprintf 141'
p291
I0
sS'197 /home/speedy/test/source2slice/NVD/CVE_2007_6151_PATCHED_isdn_ioctl.c strlen 385'
p292
I0
sS'366 /home/speedy/test/source2slice/NVD/CVE_2008_2826_PATCHED_sctp_getsockopt_local_addrs_old.c memcpy 77'
p293
I0
sS'6 /home/speedy/test/source2slice/NVD/CVE_2007_4521_VULN_play_message.c snprintf 30'
p294
I0
sS'135 /home/speedy/test/source2slice/NVD/CVE_2014_3523_PATCHED_winnt_accept.c memset 417'
p295
I0
sS'87 /home/speedy/test/source2slice/NVD/CVE_2009_0675_VULN_skfp_ioctl.c memset 19'
p296
I1
sS'518 /home/speedy/test/source2slice/NVD/CVE_2013_6378_PATCHED_lbs_debugfs_write.c strchr 36'
p297
I0
sS'67 /home/speedy/test/source2slice/NVD/CVE_2005_2617_VULN_syscall32_setup_pages.c memset 15'
p298
I1
sS'62 /home/speedy/test/source2slice/NVD/CVE-2016-4082_VULN_dissect_schedule_message.c memset 44'
p299
I0
sS'11 /home/speedy/test/source2slice/NVD/CVE_2008_1390_PATCHED_generic_http_callback.c snprintf 67'
p300
I0
sS'756 /home/speedy/test/source2slice/NVD/CVE_2015_0833_VULN_NS_main.c getenv 4'
p301
I0
sS'414 /home/speedy/test/source2slice/NVD/CVE_2010_3429_PATCHED_flic_decode_frame_8BPP.c memcpy 293'
p302
I0
sS'651 /home/speedy/test/source2slice/NVD/CVE_2015_1158_VULN_add_job.c strcmp 587'
p303
I1
sS'84 /home/speedy/test/source2slice/NVD/CVE_2008_3915_PATCHED_init_state.c memset 6'
p304
I0
sS'217 /home/speedy/test/source2slice/NVD/CVE_2008_1390_PATCHED_generic_http_callback.c strlen 65'
p305
I0
sS'602 /home/speedy/test/source2slice/NVD/CVE_2015_1158_PATCHED_add_job.c strcmp 619'
p306
I0
sS'525 /home/speedy/test/source2slice/NVD/CVE_2014_3537_PATCHED_get_file.c strchr 46'
p307
I0
sS'639 /home/speedy/test/source2slice/NVD/CVE_2015_1158_VULN_add_job.c strcmp 657'
p308
I1
sS'444 /home/speedy/test/source2slice/NVD/CVE_2013_7268_VULN_ipx_recvmsg.c memcpy 60'
p309
I0
sS'590 /home/speedy/test/source2slice/NVD/CVE_2013_5642_VULN_process_sdp.c strcmp 656'
p310
I1
sS'194 /home/speedy/test/source2slice/NVD/CVE_2005_4618_VULN_sysctl_string.c strlen 14'
p311
I1
sS'533 /home/speedy/test/source2slice/NVD/CVE_2014_1642_PATCHED_pirq_guest_bind.c xmalloc 36'
p312
I0
sS'165 /home/speedy/test/source2slice/NVD/CVE_2015_0833_PATCHED_NS_main.c memset 476'
p313
I0
sS'77 /home/speedy/test/source2slice/NVD/CVE_2006_6106_PATCHED_cmtp_recv_interopmsg.c memset 77'
p314
I0
sS'196 /home/speedy/test/source2slice/NVD/CVE_2007_6151_PATCHED_isdn_ioctl.c strlen 410'
p315
I0
sS'459 /home/speedy/test/source2slice/NVD/CVE_2014_2099_VULN_msrle_decode_frame.c memcpy 22'
p316
I0
sS'126 /home/speedy/test/source2slice/NVD/CVE_2014_2894_PATCHED_cmd_smart.c memset 111'
p317
I0
sS'78 /home/speedy/test/source2slice/NVD/CVE_2006_6106_VULN_cmtp_recv_interopmsg.c memset 88'
p318
I0
sS'232 /home/speedy/test/source2slice/NVD/CVE_2014_1690_PATCHED_help.c strlen 58'
p319
I0
sS'203 /home/speedy/test/source2slice/NVD/CVE_2007_6151_PATCHED_isdn_ioctl.c strlen 102'
p320
I0
sS'259 /home/speedy/test/source2slice/NVD/CVE_2008_1390_PATCHED_generic_http_callback.c free 117'
p321
I0
sS'397 /home/speedy/test/source2slice/NVD/CVE_2009_1336_VULN_nfs_create_server.c memcpy 32'
p322
I0
sS'286 /home/speedy/test/source2slice/NVD/CVE_2009_2844_VULN_cmp_ies.c memcmp 12'
p323
I1
sS'381 /home/speedy/test/source2slice/NVD/CVE_2008_5134_PATCHED_lbs_process_bss.c memcpy 118'
p324
I0
sS'405 /home/speedy/test/source2slice/NVD/CVE_2010_0437_VULN_ip6_dst_lookup_tail.c memcpy 49'
p325
I1
sS'747 /home/speedy/test/source2slice/NVD/CVE_2015_0833_PATCHED_NS_main.c getenv 123'
p326
I0
sS'671 /home/speedy/test/source2slice/NVD/CVE_2015_1158_VULN_send_document.c strcmp 212'
p327
I0
sS'119 /home/speedy/test/source2slice/NVD/CVE_2013_7264_PATCHED_l2tp_ip_recvmsg.c memset 34'
p328
I0
sS'133 /home/speedy/test/source2slice/NVD/CVE_2014_3511_PATCHED_ssl23_get_client_hello.c memset 267'
p329
I0
sS'731 /home/speedy/test/source2slice/NVD/CVE_2015_0833_VULN_NS_main.c sscanf 171'
p330
I0
sS'628 /home/speedy/test/source2slice/NVD/CVE_2015_1158_PATCHED_print_job.c strcmp 127'
p331
I0
sS'584 /home/speedy/test/source2slice/NVD/CVE_2010_1437_VULN_find_keyring_by_name.c strcmp 27'
p332
I0
sS'324 /home/speedy/test/source2slice/NVD/CVE-2015-1872_VULN_ff_mjpeg_decode_sof.c memcpy 109'
p333
I0
sS'585 /home/speedy/test/source2slice/NVD/CVE_2013_5642_PATCHED_process_sdp.c strcmp 656'
p334
I0
sS'581 /home/speedy/test/source2slice/NVD/CVE_2007_6151_VULN_isdn_ioctl.c strcmp 336'
p335
I0
sS'99 /home/speedy/test/source2slice/NVD/CVE_2010_3429_VULN_flic_decode_frame_15_16BPP.c memset 118'
p336
I0
sS'468 /home/speedy/test/source2slice/NVD/CVE_2014_3511_PATCHED_ssl23_get_client_hello.c memcpy 380'
p337
I0
sS'650 /home/speedy/test/source2slice/NVD/CVE_2015_1158_VULN_add_job.c strcmp 587'
p338
I1
sS'484 /home/speedy/test/source2slice/NVD/CVE_2014_5272_PATCHED_decode_frame.c memcpy 64'
p339
I0
sS'266 /home/speedy/test/source2slice/NVD/CVE_2010_2431_PATCHED_cupsFileOpen.c open 38'
p340
I0
sS'285 /home/speedy/test/source2slice/NVD/CVE_2009_2844_PATCHED_is_mesh.c memcmp 17'
p341
I0
sS'524 /home/speedy/test/source2slice/NVD/CVE_2014_3537_PATCHED_get_file.c strchr 66'
p342
I0
sS'179 /home/speedy/test/source2slice/NVD/CVE_2014_3509_PATCHED_ssl_parse_serverhello_tlsext.c fprintf 80'
p343
I0
sS'121 /home/speedy/test/source2slice/NVD/CVE_2013_7339_PATCHED_rds_ib_laddr_check.c memset 14'
p344
I0
sS'160 /home/speedy/test/source2slice/NVD/CVE_2014_5272_VULN_decode_frame.c memset 84'
p345
I0
sS'742 /home/speedy/test/source2slice/NVD/CVE_2014_2286_VULN_httpd_helper_thread.c fgets 47'
p346
I1
sS'656 /home/speedy/test/source2slice/NVD/CVE_2015_1158_VULN_authenticate_job.c strcmp 122'
p347
I0
sS'333 /home/speedy/test/source2slice/NVD/CVE-2016-7042_VULN_proc_keys_show.c memcpy 51'
p348
I1
sS'496 /home/speedy/test/source2slice/NVD/CVE_2015_2922_PATCHED_ndisc_router_discovery.c memcpy 260'
p349
I0
sS'676 /home/speedy/test/source2slice/NVD/CVE_2014_3523_PATCHED_winnt_accept.c socket 152'
p350
I0
sS'53 /home/speedy/test/source2slice/NVD/CVE_2015_1158_VULN_print_job.c snprintf 161'
p351
I1
sS'674 /home/speedy/test/source2slice/NVD/CVE_2015_1158_VULN_send_document.c strcmp 46'
p352
I0
sS'549 /home/speedy/test/source2slice/NVD/CVE_2013_7008_VULN_decode_slice_header.c assert 254'
p353
I0
sS'228 /home/speedy/test/source2slice/NVD/CVE_2013_5641_PATCHED_handle_incoming.c strlen 95'
p354
I0
sS'95 /home/speedy/test/source2slice/NVD/CVE_2010_0437_VULN_ip6_dst_lookup_tail.c memset 50'
p355
I1
sS'538 /home/speedy/test/source2slice/NVD/CVE-2015-4511_VULN_ne_parse.c assert 34'
p356
I0
sS'220 /home/speedy/test/source2slice/NVD/CVE_2008_1390_VULN_generic_http_callback.c strlen 103'
p357
I1
sS'229 /home/speedy/test/source2slice/NVD/CVE_2013_5641_VULN_handle_incoming.c strlen 95'
p358
I0
sS'536 /home/speedy/test/source2slice/NVD/CVE_2008_1390_VULN_generic_http_callback.c alloca 61'
p359
I1
sS'749 /home/speedy/test/source2slice/NVD/CVE_2015_0833_PATCHED_NS_main.c getenv 4'
p360
I0
sS'101 /home/speedy/test/source2slice/NVD/CVE_2010_3848_PATCHED_econet_sendmsg.c memset 162'
p361
I0
sS'684 /home/speedy/test/source2slice/NVD/CVE_2008_1390_VULN_generic_http_callback.c strcpy 106'
p362
I1
sS'591 /home/speedy/test/source2slice/NVD/CVE_2013_5642_VULN_process_sdp.c strcmp 225'
p363
I0
sS'443 /home/speedy/test/source2slice/NVD/CVE_2013_7268_PATCHED_ipx_recvmsg.c memcpy 23'
p364
I0
sS'118 /home/speedy/test/source2slice/NVD/CVE_2013_7019_VULN_get_cox.c memset 53'
p365
I1
sS'658 /home/speedy/test/source2slice/NVD/CVE_2015_1158_VULN_cupsdProcessIPPRequest.c strcmp 263'
p366
I0
sS'45 /home/speedy/test/source2slice/NVD/CVE_2015_1158_PATCHED_add_job.c snprintf 153'
p367
I0
sS'619 /home/speedy/test/source2slice/NVD/CVE_2015_1158_PATCHED_authenticate_job.c strcmp 122'
p368
I0
sS'613 /home/speedy/test/source2slice/NVD/CVE_2015_1158_PATCHED_add_job.c strcmp 549'
p369
I0
sS'632 /home/speedy/test/source2slice/NVD/CVE_2015_1158_PATCHED_send_document.c strcmp 365'
p370
I0
sS'88 /home/speedy/test/source2slice/NVD/CVE_2009_0746_PATCHED_make_indexed_dir.c memset 61'
p371
I0
sS'123 /home/speedy/test/source2slice/NVD/CVE_2014_2739_PATCHED_cma_req_handler.c memset 14'
p372
I0
sS'39 /home/speedy/test/source2slice/NVD/CVE_2014_3537_VULN_get_file.c snprintf 44'
p373
I1
sS'545 /home/speedy/test/source2slice/NVD/CVE_2013_7008_PATCHED_decode_slice_header.c assert 252'
p374
I0
sS'448 /home/speedy/test/source2slice/NVD/CVE_2014_0160_PATCHED_dtls1_process_heartbeat.c memcpy 44'
p375
I0
sS'289 /home/speedy/test/source2slice/NVD/CVE_2010_0307_PATCHED_load_elf_binary.c memcmp 145'
p376
I0
sS'425 /home/speedy/test/source2slice/NVD/CVE_2013_6380_VULN_aac_send_raw_srb.c memcpy 79'
p377
I1
sS'215 /home/speedy/test/source2slice/NVD/CVE_2008_1390_PATCHED_generic_http_callback.c strlen 108'
p378
I0
sS'665 /home/speedy/test/source2slice/NVD/CVE_2015_1158_VULN_print_job.c strcmp 127'
p379
I0
sS'730 /home/speedy/test/source2slice/NVD/CVE_2015_0833_PATCHED_NS_main.c sscanf 171'
p380
I0
sS'91 /home/speedy/test/source2slice/NVD/CVE_2009_2484_VULN_Win32AddConnection.c memset 27'
p381
I0
sS'32 /home/speedy/test/source2slice/NVD/CVE_2014_3537_PATCHED_get_file.c snprintf 40'
p382
I0
sS'131 /home/speedy/test/source2slice/NVD/CVE_2014_2894_VULN_cmd_smart.c memset 68'
p383
I0
sS'493 /home/speedy/test/source2slice/NVD/CVE_2014_5472_PATCHED_isofs_read_inode.c memcpy 35'
p384
I0
sS'497 /home/speedy/test/source2slice/NVD/CVE_2015_2922_VULN_ndisc_router_discovery.c memcpy 253'
p385
I1
sS'677 /home/speedy/test/source2slice/NVD/CVE_2014_3523_VULN_winnt_accept.c socket 158'
p386
I0
sS'287 /home/speedy/test/source2slice/NVD/CVE_2009_2844_VULN_is_mesh.c memcmp 31'
p387
I0
sS'686 /home/speedy/test/source2slice/NVD/CVE_2009_1439_PATCHED_CIFSTCon.c strcpy 90'
p388
I0
sS'184 /home/speedy/test/source2slice/NVD/CVE_2014_3509_VULN_ssl_parse_serverhello_tlsext.c fprintf 73'
p389
I1
sS'255 /home/speedy/test/source2slice/NVD/CVE_2010_1488_VULN_proc_oom_score.c sprintf 10'
p390
I1
sS'537 /home/speedy/test/source2slice/NVD/CVE-2015-0811_VULN_read_tag_lutType.c assert 26'
p391
I0
sS'60 /home/speedy/test/source2slice/NVD/CVE-2015-3456_VULN_fdctrl_read_data.c memset 28'
p392
I1
sS'55 /home/speedy/test/source2slice/NVD/CVE_2015_1158_VULN_send_document.c snprintf 275'
p393
I0
sS'501 /home/speedy/test/source2slice/NVD/CVE_2015_3813_VULN_fragment_add_work.c memcpy 304'
p394
I0
sS'169 /home/speedy/test/source2slice/NVD/CVE_2015_0833_PATCHED_NS_main.c MoveFileEx 795'
p395
I0
sS'315 /home/speedy/test/source2slice/NVD/CVE_2015_1159_VULN_cgi_puts.c fputs 48'
p396
I1
sS'515 /home/speedy/test/source2slice/NVD/CVE_2010_1224_PATCHED_ast_append_ha.c strchr 20'
p397
I0
sS'529 /home/speedy/test/source2slice/NVD/CVE_2014_3537_VULN_get_file.c strchr 66'
p398
I0
sS'516 /home/speedy/test/source2slice/NVD/CVE_2010_1224_VULN_ast_append_ha.c strchr 29'
p399
I0
sS'344 /home/speedy/test/source2slice/NVD/CVE_2006_1525_VULN_inet_rtm_getroute.c memcpy 27'
p400
I0
sS'408 /home/speedy/test/source2slice/NVD/CVE_2010_2521_VULN_read_buf.c memcpy 38'
p401
I1
sS'242 /home/speedy/test/source2slice/NVD/CVE_2015_0833_VULN_NS_main.c execv 14'
p402
I0
sS'271 /home/speedy/test/source2slice/NVD/CVE_2006_6106_PATCHED_cmtp_recv_interopmsg.c strncpy 110'
p403
I0
sS'621 /home/speedy/test/source2slice/NVD/CVE_2015_1158_PATCHED_cupsdProcessIPPRequest.c strcmp 263'
p404
I0
sS'754 /home/speedy/test/source2slice/NVD/CVE_2015_0833_VULN_NS_main.c getenv 123'
p405
I0
sS'24 /home/speedy/test/source2slice/NVD/CVE_2014_3182_PATCHED_logi_dj_recv_add_djhid_device.c snprintf 43'
p406
I0
sS'149 /home/speedy/test/source2slice/NVD/CVE_2014_5272_PATCHED_decode_frame.c memset 94'
p407
I0
sS'56 /home/speedy/test/source2slice/NVD/CVE_2015_1158_VULN_send_document.c snprintf 245'
p408
I1
sS'473 /home/speedy/test/source2slice/NVD/CVE_2014_3511_VULN_ssl23_get_client_hello.c memcpy 36'
p409
I0
sS'738 /home/speedy/test/source2slice/NVD/CVE_2015_1158_VULN_send_document.c sscanf 195'
p410
I0
sS'520 /home/speedy/test/source2slice/NVD/CVE_2013_6378_VULN_lbs_debugfs_write.c strchr 32'
p411
I1
sS'398 /home/speedy/test/source2slice/NVD/CVE_2009_2287_PATCHED_kvm_arch_vcpu_ioctl_set_sregs.c memcpy 48'
p412
I0
sS'395 /home/speedy/test/source2slice/NVD/CVE_2009_0746_VULN_make_indexed_dir.c memcpy 43'
p413
I1
sS'470 /home/speedy/test/source2slice/NVD/CVE_2014_3511_PATCHED_ssl23_get_client_hello.c memcpy 36'
p414
I0
sS'512 /home/speedy/test/source2slice/NVD/CVE_2009_2484_VULN_Win32AddConnection.c strchr 36'
p415
I0
sS'257 /home/speedy/test/source2slice/NVD/CVE_2010_2431_VULN_cupsFileOpen.c strrchr 46'
p416
I0
sS'743 /home/speedy/test/source2slice/NVD/CVE_2014_2286_VULN_httpd_helper_thread.c fgets 15'
p417
I0
sS'31 /home/speedy/test/source2slice/NVD/CVE_2014_3537_PATCHED_get_file.c snprintf 41'
p418
I0
sS'669 /home/speedy/test/source2slice/NVD/CVE_2015_1158_VULN_send_document.c strcmp 369'
p419
I0
sS'410 /home/speedy/test/source2slice/NVD/CVE_2010_2537_PATCHED_btrfs_ioctl_clone.c memcpy 187'
p420
I0
sS'407 /home/speedy/test/source2slice/NVD/CVE_2010_2521_PATCHED_read_buf.c memcpy 27'
p421
I0
sS'609 /home/speedy/test/source2slice/NVD/CVE_2015_1158_PATCHED_add_job.c strcmp 582'
p422
I0
sS'748 /home/speedy/test/source2slice/NVD/CVE_2015_0833_PATCHED_NS_main.c getenv 57'
p423
I0
sS'1 /home/speedy/test/source2slice/NVD/CVE_2014_2286_PATCHED_httpd_helper_thread.c fclose 108'
p424
I0
sS'352 /home/speedy/test/source2slice/NVD/CVE_2007_6151_PATCHED_isdn_ioctl.c memcpy 431'
p425
I0
sS'323 /home/speedy/test/source2slice/NVD/CVE-2015-1872_VULN_ff_mjpeg_decode_sof.c memcpy 110'
p426
I0
sS'321 /home/speedy/test/source2slice/NVD/CVE_2015_1159_VULN_cgi_puts.c fputs 23'
p427
I1
sS'705 /home/speedy/test/source2slice/NVD/CVE_2013_5642_PATCHED_process_sdp.c sscanf 308'
p428
I0
sS'418 /home/speedy/test/source2slice/NVD/CVE_2013_4936_PATCHED_IsDFP_Frame.c memcpy 25'
p429
I0
sS'707 /home/speedy/test/source2slice/NVD/CVE_2013_5642_PATCHED_process_sdp.c sscanf 263'
p430
I0
sS'412 /home/speedy/test/source2slice/NVD/CVE_2010_2538_PATCHED_btrfs_ioctl_clone.c memcpy 187'
p431
I0
sS'355 /home/speedy/test/source2slice/NVD/CVE_2007_6151_VULN_isdn_ioctl.c memcpy 426'
p432
I1
sS'578 /home/speedy/test/source2slice/NVD/CVE_2007_6151_PATCHED_isdn_ioctl.c strcmp 338'
p433
I0
sS'404 /home/speedy/test/source2slice/NVD/CVE_2010_0437_PATCHED_ip6_dst_lookup_tail.c memcpy 49'
p434
I0
sS'396 /home/speedy/test/source2slice/NVD/CVE_2009_1336_PATCHED_nfs_create_server.c memcpy 42'
p435
I0
sS'294 /home/speedy/test/source2slice/NVD/CVE_2013_4933_PATCHED_netmon_open.c memcmp 28'
p436
I0
sS'150 /home/speedy/test/source2slice/NVD/CVE_2014_5272_PATCHED_decode_frame.c memset 84'
p437
I0
sS'607 /home/speedy/test/source2slice/NVD/CVE_2015_1158_PATCHED_add_job.c strcmp 582'
p438
I0
sS'728 /home/speedy/test/source2slice/NVD/CVE_2015_0253_PATCHED_read_request_line.c sscanf 103'
p439
I0
sS'376 /home/speedy/test/source2slice/NVD/CVE_2008_5134_PATCHED_lbs_process_bss.c memcpy 198'
p440
I0
sS'727 /home/speedy/test/source2slice/NVD/CVE_2014_2286_VULN_ast_http_manid_from_vars.c sscanf 9'
p441
I0
sS'697 /home/speedy/test/source2slice/NVD/CVE_2010_1224_VULN_ast_append_ha.c sscanf 30'
p442
I0
sS'97 /home/speedy/test/source2slice/NVD/CVE_2010_3429_PATCHED_flic_decode_frame_15_16BPP.c memset 119'
p443
I0
sS'337 /home/speedy/test/source2slice/NVD/CVE-2016-8658_VULN_brcmf_cfg80211_start_ap.c memcpy 51'
p444
I0
sS'145 /home/speedy/test/source2slice/NVD/CVE_2014_5272_PATCHED_decode_frame.c memset 153'
p445
I0
sS'627 /home/speedy/test/source2slice/NVD/CVE_2015_1158_PATCHED_print_job.c strcmp 152'
p446
I0
sS'543 /home/speedy/test/source2slice/NVD/CVE_2013_7008_PATCHED_decode_slice_header.c assert 254'
p447
I0
sS'9 /home/speedy/test/source2slice/NVD/CVE_2007_4571_VULN_snd_mem_proc_read.c snprintf 11'
p448
I1
sS'463 /home/speedy/test/source2slice/NVD/CVE_2014_3185_VULN_command_port_read_callback.c memcpy 35'
p449
I1
sS'558 /home/speedy/test/source2slice/NVD/CVE_2015_0833_PATCHED_NS_main.c malloc 580'
p450
I0
sS'452 /home/speedy/test/source2slice/NVD/CVE_2014_1509_PATCHED__cairo_dwrite_load_truetype_table.c memcpy 27'
p451
I0
sS'475 /home/speedy/test/source2slice/NVD/CVE_2014_3631_VULN_assoc_array_gc.c memcpy 45'
p452
I1
sS'583 /home/speedy/test/source2slice/NVD/CVE_2010_1437_PATCHED_find_keyring_by_name.c strcmp 27'
p453
I0
sS'713 /home/speedy/test/source2slice/NVD/CVE_2013_5642_PATCHED_process_sdp.c sscanf 159'
p454
I0
sS'640 /home/speedy/test/source2slice/NVD/CVE_2015_1158_VULN_add_job.c strcmp 649'
p455
I1
sS'282 /home/speedy/test/source2slice/NVD/CVE-2016-2330_VULN_gif_image_write_image.c memcmp 22'
p456
I0
sS'626 /home/speedy/test/source2slice/NVD/CVE_2015_1158_PATCHED_print_job.c strcmp 152'
p457
I0
sS'495 /home/speedy/test/source2slice/NVD/CVE_2014_5472_VULN_isofs_read_inode.c memcpy 35'
p458
I0
sS'301 /home/speedy/test/source2slice/NVD/CVE_2015_3331_PATCHED___driver_rfc4106_decrypt.c memcmp 64'
p459
I0
sS'716 /home/speedy/test/source2slice/NVD/CVE_2013_5642_VULN_process_sdp.c sscanf 308'
p460
I0
sS'555 /home/speedy/test/source2slice/NVD/CVE_2008_0420_VULN_nsBMPDecoder__ProcessData.c malloc 158'
p461
I1
sS'504 /home/speedy/test/source2slice/NVD/CVE_2010_2431_PATCHED_cupsFileOpen.c close 98'
p462
I0
sS'729 /home/speedy/test/source2slice/NVD/CVE_2015_0253_VULN_read_request_line.c sscanf 103'
p463
I0
sS'273 /home/speedy/test/source2slice/NVD/CVE_2006_6106_VULN_cmtp_recv_interopmsg.c strncpy 89'
p464
I0
sS'364 /home/speedy/test/source2slice/NVD/CVE_2008_1390_PATCHED_generic_http_callback.c memcpy 26'
p465
I0
sS'2 /home/speedy/test/source2slice/NVD/CVE_2014_2286_VULN_httpd_helper_thread.c fclose 94'
p466
I0
sS'569 /home/speedy/test/source2slice/NVD/CVE_2008_5134_VULN_lbs_process_bss.c memmove 133'
p467
I1
sS'752 /home/speedy/test/source2slice/NVD/CVE_2015_0833_VULN_NS_main.c getenv 234'
p468
I0
sS'446 /home/speedy/test/source2slice/NVD/CVE_2013_7270_PATCHED_packet_recvmsg.c memcpy 116'
p469
I0
sS'142 /home/speedy/test/source2slice/NVD/CVE_2014_4655_VULN_snd_ctl_elem_add.c memset 20'
p470
I1
sS'490 /home/speedy/test/source2slice/NVD/CVE_2014_5471_VULN_isofs_read_inode.c memcpy 40'
p471
I0
sS'162 /home/speedy/test/source2slice/NVD/CVE_2014_5272_VULN_decode_frame.c memset 47'
p472
I0
sS'736 /home/speedy/test/source2slice/NVD/CVE_2015_1158_VULN_print_job.c sscanf 109'
p473
I0
sS'105 /home/speedy/test/source2slice/NVD/CVE_2013_5642_VULN_process_sdp.c memset 336'
p474
I0
sS'441 /home/speedy/test/source2slice/NVD/CVE_2013_7266_VULN_mISDN_sock_recvmsg.c memcpy 55'
p475
I0
sS'63 /home/speedy/test/source2slice/NVD/CVE-2016-4082_VULN_dissect_schedule_message.c memset 43'
p476
I0
sS'180 /home/speedy/test/source2slice/NVD/CVE_2014_3509_PATCHED_ssl_parse_serverhello_tlsext.c fprintf 79'
p477
I0
sS'643 /home/speedy/test/source2slice/NVD/CVE_2015_1158_VULN_add_job.c strcmp 620'
p478
I1
sS'666 /home/speedy/test/source2slice/NVD/CVE_2015_1158_VULN_print_job.c strcmp 127'
p479
I0
sS'612 /home/speedy/test/source2slice/NVD/CVE_2015_1158_PATCHED_add_job.c strcmp 564'
p480
I0
sS'82 /home/speedy/test/source2slice/NVD/CVE_2008_0420_VULN_nsBMPDecoder__ProcessData.c memset 325'
p481
I1
sS'733 /home/speedy/test/source2slice/NVD/CVE_2015_1158_PATCHED_print_job.c sscanf 92'
p482
I0
sS'347 /home/speedy/test/source2slice/NVD/CVE_2006_2935_PATCHED_dvd_read_bca.c memcpy 21'
p483
I0
sS'187 /home/speedy/test/source2slice/NVD/CVE_2015_0833_PATCHED_NS_main.c fprintf 37'
p484
I0
sS'256 /home/speedy/test/source2slice/NVD/CVE_2010_2431_PATCHED_cupsFileOpen.c strrchr 57'
p485
I0
sS'349 /home/speedy/test/source2slice/NVD/CVE_2006_6106_PATCHED_cmtp_recv_interopmsg.c memcpy 58'
p486
I0
sS'509 /home/speedy/test/source2slice/NVD/CVE_2007_6151_VULN_isdn_ioctl.c strchr 250'
p487
I0
sS'66 /home/speedy/test/source2slice/NVD/CVE_2005_2617_PATCHED_syscall32_setup_pages.c memset 16'
p488
I0
sS'464 /home/speedy/test/source2slice/NVD/CVE_2014_3509_PATCHED_ssl_parse_serverhello_tlsext.c memcpy 177'
p489
I0
sS'486 /home/speedy/test/source2slice/NVD/CVE_2014_5272_VULN_decode_frame.c memcpy 105'
p490
I0
sS'362 /home/speedy/test/source2slice/NVD/CVE_2008_0420_VULN_nsBMPDecoder__ProcessData.c memcpy 30'
p491
I0
sS'741 /home/speedy/test/source2slice/NVD/CVE_2014_2286_PATCHED_httpd_helper_thread.c fgets 16'
p492
I0
sS'740 /home/speedy/test/source2slice/NVD/CVE_2014_2286_PATCHED_httpd_helper_thread.c fgets 52'
p493
I0
sS'566 /home/speedy/test/source2slice/NVD/CVE-2016-3062_VULN_mov_read_dref.c memmove 82'
p494
I0
sS'386 /home/speedy/test/source2slice/NVD/CVE_2008_5134_VULN_lbs_process_bss.c memcpy 179'
p495
I1
sS'502 /home/speedy/test/source2slice/NVD/CVE_2015_4001_PATCHED_oz_hcd_get_desc_cnf.c memcpy 22'
p496
I0
sS'719 /home/speedy/test/source2slice/NVD/CVE_2013_5642_VULN_process_sdp.c sscanf 263'
p497
I0
sS'616 /home/speedy/test/source2slice/NVD/CVE_2015_1158_PATCHED_add_job.c strcmp 421'
p498
I0
sS'720 /home/speedy/test/source2slice/NVD/CVE_2013_5642_VULN_process_sdp.c sscanf 245'
p499
I0
sS'517 /home/speedy/test/source2slice/NVD/CVE_2010_1224_VULN_ast_append_ha.c strchr 20'
p500
I0
sS'208 /home/speedy/test/source2slice/NVD/CVE_2007_6151_VULN_isdn_ioctl.c strlen 333'
p501
I0
sS'500 /home/speedy/test/source2slice/NVD/CVE_2015_3813_PATCHED_fragment_add_work.c memcpy 306'
p502
I0
sS'571 /home/speedy/test/source2slice/NVD/CVE_2010_2537_PATCHED_btrfs_ioctl_clone.c memmove 257'
p503
I0
sS'365 /home/speedy/test/source2slice/NVD/CVE_2008_1390_VULN_generic_http_callback.c memcpy 26'
p504
I1
sS'552 /home/speedy/test/source2slice/NVD/CVE_2007_1217_VULN_bufprint.c vsprintf 5'
p505
I1
sS'195 /home/speedy/test/source2slice/NVD/CVE_2007_1217_VULN_bufprint.c strlen 7'
p506
I1
sS'539 /home/speedy/test/source2slice/NVD/CVE-2015-4511_VULN_ne_parse.c assert 25'
p507
I0
sS'186 /home/speedy/test/source2slice/NVD/CVE_2015_0833_PATCHED_NS_main.c fprintf 184'
p508
I0
sS'672 /home/speedy/test/source2slice/NVD/CVE_2015_1158_VULN_send_document.c strcmp 212'
p509
I0
sS'112 /home/speedy/test/source2slice/NVD/CVE_2013_7008_VULN_decode_slice_header.c memset 386'
p510
I0
sS'653 /home/speedy/test/source2slice/NVD/CVE_2015_1158_VULN_add_job.c strcmp 422'
p511
I1
sS'360 /home/speedy/test/source2slice/NVD/CVE_2008_0420_VULN_nsBMPDecoder__ProcessData.c memcpy 151'
p512
I1
sS'44 /home/speedy/test/source2slice/NVD/CVE_2014_3537_VULN_get_file.c snprintf 22'
p513
I0
sS'420 /home/speedy/test/source2slice/NVD/CVE_2013_4936_VULN_IsDFP_Frame.c memcpy 19'
p514
I0
sS'540 /home/speedy/test/source2slice/NVD/CVE_2013_7008_PATCHED_decode_slice_header.c assert 347'
p515
I0
sS'155 /home/speedy/test/source2slice/NVD/CVE_2014_5272_VULN_decode_frame.c memset 153'
p516
I0
sS'199 /home/speedy/test/source2slice/NVD/CVE_2007_6151_PATCHED_isdn_ioctl.c strlen 379'
p517
I0
sS'5 /home/speedy/test/source2slice/NVD/CVE_2007_4521_PATCHED_play_message.c snprintf 30'
p518
I0
sS'291 /home/speedy/test/source2slice/NVD/CVE_2010_0307_VULN_load_elf_binary.c memcmp 166'
p519
I0
sS'331 /home/speedy/test/source2slice/NVD/CVE-2016-4002_VULN_mipsnet_receive.c memcpy 14'
p520
I0
sS'457 /home/speedy/test/source2slice/NVD/CVE_2014_2099_VULN_msrle_decode_frame.c memcpy 44'
p521
I1
sS'327 /home/speedy/test/source2slice/NVD/CVE-2016-2327_VULN_apng_encode_frame.c memcpy 74'
p522
I1
sS'622 /home/speedy/test/source2slice/NVD/CVE_2015_1158_PATCHED_cupsdProcessIPPRequest.c strcmp 263'
p523
I0
sS'272 /home/speedy/test/source2slice/NVD/CVE_2006_6106_PATCHED_cmtp_recv_interopmsg.c strncpy 78'
p524
I0
sS'462 /home/speedy/test/source2slice/NVD/CVE_2014_3185_PATCHED_command_port_read_callback.c memcpy 40'
p525
I0
sS'247 /home/speedy/test/source2slice/NVD/CVE-2016-7042_VULN_proc_keys_show.c sprintf 56'
p526
I1
sS'506 /home/speedy/test/source2slice/NVD/CVE_2007_6151_PATCHED_isdn_ioctl.c strchr 411'
p527
I0
sS'423 /home/speedy/test/source2slice/NVD/CVE_2013_6380_PATCHED_aac_send_raw_srb.c memcpy 80'
p528
I0
sS'13 /home/speedy/test/source2slice/NVD/CVE_2009_2484_PATCHED_Win32AddConnection.c snprintf 41'
p529
I0
sS'369 /home/speedy/test/source2slice/NVD/CVE_2008_2826_VULN_sctp_getsockopt_local_addrs_old.c memcpy 72'
p530
I1
sS'678 /home/speedy/test/source2slice/NVD/CVE_2014_3523_VULN_winnt_accept.c socket 152'
p531
I0
sS'117 /home/speedy/test/source2slice/NVD/CVE_2013_7019_VULN_get_cox.c memset 54'
p532
I1
sS'587 /home/speedy/test/source2slice/NVD/CVE_2013_5642_PATCHED_process_sdp.c strcmp 223'
p533
I0
sS'382 /home/speedy/test/source2slice/NVD/CVE_2008_5134_PATCHED_lbs_process_bss.c memcpy 103'
p534
I0
sS'225 /home/speedy/test/source2slice/NVD/CVE_2009_1439_PATCHED_CIFSTCon.c strlen 88'
p535
I0
sS'188 /home/speedy/test/source2slice/NVD/CVE_2015_0833_VULN_NS_main.c fprintf 322'
p536
I0
sS'513 /home/speedy/test/source2slice/NVD/CVE_2009_2484_VULN_Win32AddConnection.c strchr 33'
p537
I0
sS'657 /home/speedy/test/source2slice/NVD/CVE_2015_1158_VULN_authenticate_job.c strcmp 35'
p538
I0
sS'258 /home/speedy/test/source2slice/NVD/CVE_2008_1390_PATCHED_generic_http_callback.c free 118'
p539
I0
sS'238 /home/speedy/test/source2slice/NVD/CVE_2015_0253_PATCHED_read_request_line.c strlen 88'
p540
I0
sS'704 /home/speedy/test/source2slice/NVD/CVE_2013_5642_PATCHED_process_sdp.c sscanf 308'
p541
I0
sS'79 /home/speedy/test/source2slice/NVD/CVE_2008_0420_PATCHED_nsBMPDecoder__ProcessData.c memset 329'
p542
I0
sS'563 /home/speedy/test/source2slice/NVD/CVE_2008_0420_VULN_nsBMPDecoder__ProcessData.c calloc 241'
p543
I1
sS'181 /home/speedy/test/source2slice/NVD/CVE_2014_3509_PATCHED_ssl_parse_serverhello_tlsext.c fprintf 76'
p544
I0
sS'655 /home/speedy/test/source2slice/NVD/CVE_2015_1158_VULN_add_job.c strcmp 67'
p545
I0
sS'173 /home/speedy/test/source2slice/NVD/CVE_2014_3640_PATCHED_udp_input.c strerror 158'
p546
I0
sS'132 /home/speedy/test/source2slice/NVD/CVE_2014_2894_VULN_cmd_smart.c memset 48'
p547
I0
sS'421 /home/speedy/test/source2slice/NVD/CVE_2013_4936_VULN_IsDFP_Frame.c memcpy 18'
p548
I0
sS'476 /home/speedy/test/source2slice/NVD/CVE_2014_4174_PATCHED_libpcap_dump.c memcpy 71'
p549
I0
sS'489 /home/speedy/test/source2slice/NVD/CVE_2014_5471_PATCHED_isofs_read_inode.c memcpy 35'
p550
I0
sS'623 /home/speedy/test/source2slice/NVD/CVE_2015_1158_PATCHED_cupsdProcessIPPRequest.c strcmp 136'
p551
I0
sS'59 /home/speedy/test/source2slice/NVD/CVE-2015-1872_VULN_ff_mjpeg_decode_sof.c memset 65'
p552
I1
sS'472 /home/speedy/test/source2slice/NVD/CVE_2014_3511_VULN_ssl23_get_client_hello.c memcpy 252'
p553
I1
sS'526 /home/speedy/test/source2slice/NVD/CVE_2014_3537_PATCHED_get_file.c strchr 23'
p554
I0
sS'611 /home/speedy/test/source2slice/NVD/CVE_2015_1158_PATCHED_add_job.c strcmp 564'
p555
I0
sS'248 /home/speedy/test/source2slice/NVD/CVE_2007_6151_VULN_isdn_ioctl.c sprintf 377'
p556
I1
sS'153 /home/speedy/test/source2slice/NVD/CVE_2014_5272_PATCHED_decode_frame.c memset 44'
p557
I0
sS'156 /home/speedy/test/source2slice/NVD/CVE_2014_5272_VULN_decode_frame.c memset 143'
p558
I0
sS'170 /home/speedy/test/source2slice/NVD/CVE_2015_0833_VULN_NS_main.c MoveFileEx 795'
p559
I0
sS'249 /home/speedy/test/source2slice/NVD/CVE_2008_1390_PATCHED_generic_http_callback.c sprintf 88'
p560
I0
sS'680 /home/speedy/test/source2slice/NVD/CVE_2007_6151_PATCHED_isdn_ioctl.c strcpy 364'
p561
I0
sS'644 /home/speedy/test/source2slice/NVD/CVE_2015_1158_VULN_add_job.c strcmp 620'
p562
I1
sS'93 /home/speedy/test/source2slice/NVD/CVE_2009_4307_VULN_ext4_fill_flex_info.c memset 28'
p563
I1
sS'400 /home/speedy/test/source2slice/NVD/CVE_2009_3080_PATCHED_gdth_read_event.c memcpy 27'
p564
I0
sS'227 /home/speedy/test/source2slice/NVD/CVE_2009_1439_VULN_CIFSTCon.c strlen 88'
p565
I0
sS'309 /home/speedy/test/source2slice/NVD/CVE_2015_1159_PATCHED_cgi_puts.c fputs 18'
p566
I0
sS'419 /home/speedy/test/source2slice/NVD/CVE_2013_4936_PATCHED_IsDFP_Frame.c memcpy 24'
p567
I0
sS'320 /home/speedy/test/source2slice/NVD/CVE_2015_1159_VULN_cgi_puts.c fputs 33'
p568
I1
sS'144 /home/speedy/test/source2slice/NVD/CVE_2014_5163_VULN_decode_apn.c memset 8'
p569
I1
sS'28 /home/speedy/test/source2slice/NVD/CVE_2014_3537_PATCHED_get_file.c snprintf 76'
p570
I0
sS'343 /home/speedy/test/source2slice/NVD/CVE_2006_1525_VULN_inet_rtm_getroute.c memcpy 48'
p571
I0
sS'345 /home/speedy/test/source2slice/NVD/CVE_2006_1525_VULN_inet_rtm_getroute.c memcpy 25'
p572
I0
sS'148 /home/speedy/test/source2slice/NVD/CVE_2014_5272_PATCHED_decode_frame.c memset 124'
p573
I0
sS'551 /home/speedy/test/source2slice/NVD/CVE_2013_7008_VULN_decode_slice_header.c assert 252'
p574
I0
sS'564 /home/speedy/test/source2slice/NVD/CVE_2013_6378_PATCHED_lbs_debugfs_write.c strstr 29'
p575
I0
sS'109 /home/speedy/test/source2slice/NVD/CVE_2013_7008_PATCHED_decode_slice_header.c memset 388'
p576
I0
sS'89 /home/speedy/test/source2slice/NVD/CVE_2009_0746_VULN_make_indexed_dir.c memset 52'
p577
I0
sS'175 /home/speedy/test/source2slice/NVD/CVE_2014_3640_PATCHED_udp_input.c strerror 119'
p578
I0
sS'559 /home/speedy/test/source2slice/NVD/CVE_2015_0833_VULN_NS_main.c malloc 580'
p579
I0
sS'683 /home/speedy/test/source2slice/NVD/CVE_2008_1390_PATCHED_generic_http_callback.c strcpy 110'
p580
I0
sS'25 /home/speedy/test/source2slice/NVD/CVE_2014_3182_VULN_logi_dj_recv_add_djhid_device.c snprintf 56'
p581
I1
sS'413 /home/speedy/test/source2slice/NVD/CVE_2010_2538_VULN_btrfs_ioctl_clone.c memcpy 187'
p582
I1
sS'260 /home/speedy/test/source2slice/NVD/CVE_2008_1390_VULN_generic_http_callback.c free 113'
p583
I1
sS'361 /home/speedy/test/source2slice/NVD/CVE_2008_0420_VULN_nsBMPDecoder__ProcessData.c memcpy 124'
p584
I1
sS'130 /home/speedy/test/source2slice/NVD/CVE_2014_2894_VULN_cmd_smart.c memset 111'
p585
I0
sS'7 /home/speedy/test/source2slice/NVD/CVE_2007_4571_VULN_snd_mem_proc_read.c snprintf 20'
p586
I1
sS'659 /home/speedy/test/source2slice/NVD/CVE_2015_1158_VULN_cupsdProcessIPPRequest.c strcmp 263'
p587
I0
sS'751 /home/speedy/test/source2slice/NVD/CVE_2015_0833_VULN_NS_main.c getenv 877'
p588
I0
sS'275 /home/speedy/test/source2slice/NVD/CVE_2009_1439_PATCHED_CIFSTCon.c strncpy 151'
p589
I0
sS'725 /home/speedy/test/source2slice/NVD/CVE_2013_5642_VULN_process_sdp.c sscanf 159'
p590
I0
sS'125 /home/speedy/test/source2slice/NVD/CVE_2014_2894_PATCHED_cmd_smart.c memset 123'
p591
I0
sS'696 /home/speedy/test/source2slice/NVD/CVE_2010_1224_PATCHED_ast_append_ha.c sscanf 30'
p592
I0
sS'467 /home/speedy/test/source2slice/NVD/CVE_2014_3509_VULN_ssl_parse_serverhello_tlsext.c memcpy 71'
p593
I1
sS'222 /home/speedy/test/source2slice/NVD/CVE_2008_1390_VULN_generic_http_callback.c strlen 60'
p594
I1
sS'61 /home/speedy/test/source2slice/NVD/CVE-2016-2327_VULN_apng_encode_frame.c memset 67'
p595
I1
sS'698 /home/speedy/test/source2slice/NVD/CVE_2010_2068_PATCHED_ap_proxy_http_process_response.c sscanf 122'
p596
I0
sS'206 /home/speedy/test/source2slice/NVD/CVE_2007_6151_VULN_isdn_ioctl.c strlen 381'
p597
I1
sS'190 /home/speedy/test/source2slice/NVD/CVE_2015_0833_VULN_NS_main.c fprintf 37'
p598
I0
sS'113 /home/speedy/test/source2slice/NVD/CVE_2013_7011_PATCHED_read_header.c memset 7'
p599
I0
sS'120 /home/speedy/test/source2slice/NVD/CVE_2013_7264_VULN_l2tp_ip_recvmsg.c memset 37'
p600
I0
sS'380 /home/speedy/test/source2slice/NVD/CVE_2008_5134_PATCHED_lbs_process_bss.c memcpy 125'
p601
I0
sS'51 /home/speedy/test/source2slice/NVD/CVE_2015_1158_VULN_add_job.c snprintf 153'
p602
I0
sS'280 /home/speedy/test/source2slice/NVD/CVE-2015-1872_VULN_ff_mjpeg_decode_sof.c memcmp 101'
p603
I0
sS'100 /home/speedy/test/source2slice/NVD/CVE_2010_3429_VULN_flic_decode_frame_8BPP.c memset 208'
p604
I1
sS'416 /home/speedy/test/source2slice/NVD/CVE_2010_3429_VULN_flic_decode_frame_8BPP.c memcpy 289'
p605
I1
sS'547 /home/speedy/test/source2slice/NVD/CVE_2013_7008_VULN_decode_slice_header.c assert 346'
p606
I0
sS'641 /home/speedy/test/source2slice/NVD/CVE_2015_1158_VULN_add_job.c strcmp 641'
p607
I1
sS'688 /home/speedy/test/source2slice/NVD/CVE_2009_1439_VULN_CIFSTCon.c strcpy 90'
p608
I0
sS'681 /home/speedy/test/source2slice/NVD/CVE_2007_6151_VULN_isdn_ioctl.c strcpy 362'
p609
I0
sS'542 /home/speedy/test/source2slice/NVD/CVE_2013_7008_PATCHED_decode_slice_header.c assert 345'
p610
I0
sS'368 /home/speedy/test/source2slice/NVD/CVE_2008_2826_VULN_sctp_getsockopt_local_addrs_old.c memcpy 75'
p611
I1
sS'455 /home/speedy/test/source2slice/NVD/CVE_2014_2099_PATCHED_msrle_decode_frame.c memcpy 25'
p612
I0
sS'701 /home/speedy/test/source2slice/NVD/CVE_2013_5641_PATCHED_handle_incoming.c sscanf 37'
p613
I0
sS'279 /home/speedy/test/source2slice/NVD/CVE-2015-1872_VULN_ff_mjpeg_decode_sof.c memcmp 101'
p614
I0
sS'335 /home/speedy/test/source2slice/NVD/CVE-2016-7913_VULN_xc2028_set_config.c memcpy 17'
p615
I0
sS'722 /home/speedy/test/source2slice/NVD/CVE_2013_5642_VULN_process_sdp.c sscanf 211'
p616
I0
sS'439 /home/speedy/test/source2slice/NVD/CVE_2013_7265_VULN_pn_recvmsg.c memcpy 38'
p617
I1
sS'342 /home/speedy/test/source2slice/NVD/CVE_2006_1525_PATCHED_inet_rtm_getroute.c memcpy 26'
p618
I0
sS'700 /home/speedy/test/source2slice/NVD/CVE_2013_5641_PATCHED_handle_incoming.c sscanf 68'
p619
I0
sS'34 /home/speedy/test/source2slice/NVD/CVE_2014_3537_PATCHED_get_file.c snprintf 24'
p620
I0
sS'29 /home/speedy/test/source2slice/NVD/CVE_2014_3537_PATCHED_get_file.c snprintf 64'
p621
I0
sS'19 /home/speedy/test/source2slice/NVD/CVE_2013_5641_VULN_handle_incoming.c snprintf 168'
p622
I0
sS'283 /home/speedy/test/source2slice/NVD/CVE_2009_2844_PATCHED_cmp_ies.c memcmp 12'
p623
I0
sS'319 /home/speedy/test/source2slice/NVD/CVE_2015_1159_VULN_cgi_puts.c fputs 37'
p624
I1
sS'437 /home/speedy/test/source2slice/NVD/CVE_2013_7023_VULN_ff_combine_frame.c memcpy 28'
p625
I1
sS'18 /home/speedy/test/source2slice/NVD/CVE_2013_5641_PATCHED_handle_incoming.c snprintf 100'
p626
I0
sS'314 /home/speedy/test/source2slice/NVD/CVE_2015_1159_VULN_cgi_puts.c fputs 50'
p627
I1
sS'288 /home/speedy/test/source2slice/NVD/CVE_2009_2844_VULN_is_mesh.c memcmp 17'
p628
I0
sS'474 /home/speedy/test/source2slice/NVD/CVE_2014_3631_PATCHED_assoc_array_gc.c memcpy 45'
p629
I0
sS'341 /home/speedy/test/source2slice/NVD/CVE_2006_1525_PATCHED_inet_rtm_getroute.c memcpy 28'
p630
I0
sS'699 /home/speedy/test/source2slice/NVD/CVE_2010_2068_VULN_ap_proxy_http_process_response.c sscanf 120'
p631
I0
sS'557 /home/speedy/test/source2slice/NVD/CVE_2008_1390_VULN_generic_http_callback.c malloc 103'
p632
I1
sS'645 /home/speedy/test/source2slice/NVD/CVE_2015_1158_VULN_add_job.c strcmp 620'
p633
I1
sS'377 /home/speedy/test/source2slice/NVD/CVE_2008_5134_PATCHED_lbs_process_bss.c memcpy 179'
p634
I0
sS'703 /home/speedy/test/source2slice/NVD/CVE_2013_5641_VULN_handle_incoming.c sscanf 37'
p635
I0
sS'73 /home/speedy/test/source2slice/NVD/CVE_2006_4813_VULN___block_prepare_write.c memset 104'
p636
I1
sS'560 /home/speedy/test/source2slice/NVD/CVE_2008_0420_PATCHED_nsBMPDecoder__ProcessData.c calloc 252'
p637
I0
sS'372 /home/speedy/test/source2slice/NVD/CVE_2008_3527_VULN_sysenter_setup.c memcpy 17'
p638
I1
sS'64 /home/speedy/test/source2slice/NVD/CVE-2016-8658_VULN_brcmf_cfg80211_start_ap.c memset 168'
p639
I1
sS'527 /home/speedy/test/source2slice/NVD/CVE_2014_3537_VULN_get_file.c strchr 122'
p640
I1
sS'642 /home/speedy/test/source2slice/NVD/CVE_2015_1158_VULN_add_job.c strcmp 641'
p641
I1
sS'568 /home/speedy/test/source2slice/NVD/CVE_2008_5134_PATCHED_lbs_process_bss.c memmove 110'
p642
I0
sS'81 /home/speedy/test/source2slice/NVD/CVE_2008_0420_PATCHED_nsBMPDecoder__ProcessData.c memset 55'
p643
I0
sS'353 /home/speedy/test/source2slice/NVD/CVE_2007_6151_PATCHED_isdn_ioctl.c memcpy 429'
p644
I0
sS'278 /home/speedy/test/source2slice/NVD/CVE_2009_1439_VULN_CIFSTCon.c strncpy 122'
p645
I0
sS'561 /home/speedy/test/source2slice/NVD/CVE_2008_0420_PATCHED_nsBMPDecoder__ProcessData.c calloc 245'
p646
I0
sS'326 /home/speedy/test/source2slice/NVD/CVE-2016-2327_VULN_apng_encode_frame.c memcpy 114'
p647
I1
sS'329 /home/speedy/test/source2slice/NVD/CVE-2016-2330_VULN_gif_image_write_image.c memcpy 111'
p648
I0
sS'575 /home/speedy/test/source2slice/NVD/CVE-2016-7913_VULN_xc2028_set_config.c strcmp 28'
p649
I0
sS'139 /home/speedy/test/source2slice/NVD/CVE_2014_4654_PATCHED_snd_ctl_elem_add.c memset 18'
p650
I0
sS'724 /home/speedy/test/source2slice/NVD/CVE_2013_5642_VULN_process_sdp.c sscanf 159'
p651
I0
sS'317 /home/speedy/test/source2slice/NVD/CVE_2015_1159_VULN_cgi_puts.c fputs 44'
p652
I1
sS'573 /home/speedy/test/source2slice/NVD/CVE_2010_2538_PATCHED_btrfs_ioctl_clone.c memmove 257'
p653
I0
sS'336 /home/speedy/test/source2slice/NVD/CVE-2016-8658_VULN_brcmf_cfg80211_start_ap.c memcpy 170'
p654
I1
sS'213 /home/speedy/test/source2slice/NVD/CVE_2008_1390_PATCHED_generic_http_callback.c strlen 111'
p655
I0
sS'482 /home/speedy/test/source2slice/NVD/CVE_2014_5272_PATCHED_decode_frame.c memcpy 111'
p656
I0
sS'312 /home/speedy/test/source2slice/NVD/CVE_2015_1159_PATCHED_cgi_puts.c fputs 12'
p657
I0
sS'270 /home/speedy/test/source2slice/NVD/CVE_2004_1151_PATCHED_sys32_ni_syscall.c strncpy 9'
p658
I0
sS'367 /home/speedy/test/source2slice/NVD/CVE_2008_2826_PATCHED_sctp_getsockopt_local_addrs_old.c memcpy 74'
p659
I0
sS'83 /home/speedy/test/source2slice/NVD/CVE_2008_0420_VULN_nsBMPDecoder__ProcessData.c memset 277'
p660
I1
sS'451 /home/speedy/test/source2slice/NVD/CVE_2014_0160_VULN_tls1_process_heartbeat.c memcpy 34'
p661
I1
sS'739 /home/speedy/test/source2slice/NVD/CVE_2015_1158_VULN_send_document.c sscanf 179'
p662
I0
sS'675 /home/speedy/test/source2slice/NVD/CVE_2014_3523_PATCHED_winnt_accept.c socket 158'
p663
I0
sS'202 /home/speedy/test/source2slice/NVD/CVE_2007_6151_PATCHED_isdn_ioctl.c strlen 121'
p664
I0
sS'433 /home/speedy/test/source2slice/NVD/CVE_2013_7011_VULN_read_header.c memcpy 176'
p665
I1
sS'603 /home/speedy/test/source2slice/NVD/CVE_2015_1158_PATCHED_add_job.c strcmp 611'
p666
I0
sS'579 /home/speedy/test/source2slice/NVD/CVE_2007_6151_PATCHED_isdn_ioctl.c strcmp 255'
p667
I0
sS'290 /home/speedy/test/source2slice/NVD/CVE_2010_0307_PATCHED_load_elf_binary.c memcmp 34'
p668
I0
sS'706 /home/speedy/test/source2slice/NVD/CVE_2013_5642_PATCHED_process_sdp.c sscanf 290'
p669
I0
sS'541 /home/speedy/test/source2slice/NVD/CVE_2013_7008_PATCHED_decode_slice_header.c assert 346'
p670
I0
sS'40 /home/speedy/test/source2slice/NVD/CVE_2014_3537_VULN_get_file.c snprintf 41'
p671
I0
sS'223 /home/speedy/test/source2slice/NVD/CVE_2008_1390_VULN_generic_http_callback.c strlen 60'
p672
I1
sS'115 /home/speedy/test/source2slice/NVD/CVE_2013_7019_PATCHED_get_cox.c memset 61'
p673
I0
sS'264 /home/speedy/test/source2slice/NVD/CVE_2008_1390_PATCHED_generic_http_callback.c rand 38'
p674
I0
sS'617 /home/speedy/test/source2slice/NVD/CVE_2015_1158_PATCHED_add_job.c strcmp 197'
p675
I0
sS'601 /home/speedy/test/source2slice/NVD/CVE_2015_1158_PATCHED_add_job.c strcmp 623'
p676
I0
sS'618 /home/speedy/test/source2slice/NVD/CVE_2015_1158_PATCHED_add_job.c strcmp 67'
p677
I0
sS'284 /home/speedy/test/source2slice/NVD/CVE_2009_2844_PATCHED_is_mesh.c memcmp 33'
p678
I0
sS'308 /home/speedy/test/source2slice/NVD/CVE_2007_1217_PATCHED_bufprint.c vsnprintf 10'
p679
I0
sS'393 /home/speedy/test/source2slice/NVD/CVE_2008_5134_VULN_lbs_process_bss.c memcpy 39'
p680
I0
sS'14 /home/speedy/test/source2slice/NVD/CVE_2009_4308_PATCHED_ext4_decode_error.c snprintf 26'
p681
I0
sS'47 /home/speedy/test/source2slice/NVD/CVE_2015_1158_PATCHED_print_job.c snprintf 161'
p682
I0
sS'554 /home/speedy/test/source2slice/NVD/CVE_2008_0420_PATCHED_nsBMPDecoder__ProcessData.c malloc 162'
p683
I0
sS'431 /home/speedy/test/source2slice/NVD/CVE_2013_7011_PATCHED_read_header.c memcpy 193'
p684
I0
sS'293 /home/speedy/test/source2slice/NVD/CVE_2013_4933_PATCHED_netmon_open.c memcmp 28'
p685
I0
sS'281 /home/speedy/test/source2slice/NVD/CVE-2016-2330_VULN_gif_image_write_image.c memcmp 27'
p686
I0
sS'201 /home/speedy/test/source2slice/NVD/CVE_2007_6151_PATCHED_isdn_ioctl.c strlen 250'
p687
I0
sS'313 /home/speedy/test/source2slice/NVD/CVE_2015_1159_PATCHED_cgi_puts.c fputs 10'
p688
I0
sS'401 /home/speedy/test/source2slice/NVD/CVE_2009_3080_VULN_gdth_read_event.c memcpy 27'
p689
I1
sS'245 /home/speedy/test/source2slice/NVD/CVE-2016-7042_VULN_proc_keys_show.c sprintf 60'
p690
I1
sS'498 /home/speedy/test/source2slice/NVD/CVE_2015_3811_PATCHED_wcp_uncompress.c memcpy 195'
p691
I0
sS'438 /home/speedy/test/source2slice/NVD/CVE_2013_7265_PATCHED_pn_recvmsg.c memcpy 35'
p692
I0
sS'154 /home/speedy/test/source2slice/NVD/CVE_2014_5272_PATCHED_decode_frame.c memset 35'
p693
I0
sS'424 /home/speedy/test/source2slice/NVD/CVE_2013_6380_VULN_aac_send_raw_srb.c memcpy 179'
p694
I1
sS'151 /home/speedy/test/source2slice/NVD/CVE_2014_5272_PATCHED_decode_frame.c memset 75'
p695
I0
sS'75 /home/speedy/test/source2slice/NVD/CVE_2006_4813_VULN___block_prepare_write.c memset 52'
p696
I0
sS'21 /home/speedy/test/source2slice/NVD/CVE_2013_5641_VULN_handle_incoming.c snprintf 100'
p697
I0
sS'374 /home/speedy/test/source2slice/NVD/CVE_2008_4302_PATCHED_pipe_to_file.c memcpy 69'
p698
I0
sS'122 /home/speedy/test/source2slice/NVD/CVE_2013_7339_VULN_rds_ib_laddr_check.c memset 14'
p699
I1
sS'116 /home/speedy/test/source2slice/NVD/CVE_2013_7019_PATCHED_get_cox.c memset 60'
p700
I0
sS'157 /home/speedy/test/source2slice/NVD/CVE_2014_5272_VULN_decode_frame.c memset 133'
p701
I0
sS'673 /home/speedy/test/source2slice/NVD/CVE_2015_1158_VULN_send_document.c strcmp 137'
p702
I0
sS'390 /home/speedy/test/source2slice/NVD/CVE_2008_5134_VULN_lbs_process_bss.c memcpy 118'
p703
I1
sS'74 /home/speedy/test/source2slice/NVD/CVE_2006_4813_VULN___block_prepare_write.c memset 55'
p704
I0
sS'8 /home/speedy/test/source2slice/NVD/CVE_2007_4571_VULN_snd_mem_proc_read.c snprintf 17'
p705
I1
sS'384 /home/speedy/test/source2slice/NVD/CVE_2008_5134_PATCHED_lbs_process_bss.c memcpy 39'
p706
I0
sS'86 /home/speedy/test/source2slice/NVD/CVE_2009_0675_PATCHED_skfp_ioctl.c memset 21'
p707
I0
sS'718 /home/speedy/test/source2slice/NVD/CVE_2013_5642_VULN_process_sdp.c sscanf 263'
p708
I0
sS'230 /home/speedy/test/source2slice/NVD/CVE_2013_5642_PATCHED_process_sdp.c strlen 721'
p709
I0
sS'503 /home/speedy/test/source2slice/NVD/CVE_2015_4001_VULN_oz_hcd_get_desc_cnf.c memcpy 22'
p710
I1
sS'631 /home/speedy/test/source2slice/NVD/CVE_2015_1158_PATCHED_release_job.c strcmp 24'
p711
I0
sS'605 /home/speedy/test/source2slice/NVD/CVE_2015_1158_PATCHED_add_job.c strcmp 603'
p712
I0
sS'521 /home/speedy/test/source2slice/NVD/CVE_2013_6378_VULN_lbs_debugfs_write.c strchr 28'
p713
I1
sS'359 /home/speedy/test/source2slice/NVD/CVE_2008_0420_PATCHED_nsBMPDecoder__ProcessData.c memcpy 12'
p714
I0
sS'734 /home/speedy/test/source2slice/NVD/CVE_2015_1158_PATCHED_send_document.c sscanf 195'
p715
I0
sS'721 /home/speedy/test/source2slice/NVD/CVE_2013_5642_VULN_process_sdp.c sscanf 211'
p716
I0
sS'510 /home/speedy/test/source2slice/NVD/CVE_2009_2484_PATCHED_Win32AddConnection.c strchr 36'
p717
I0
sS'26 /home/speedy/test/source2slice/NVD/CVE_2014_3182_VULN_logi_dj_recv_add_djhid_device.c snprintf 50'
p718
I1
sS'171 /home/speedy/test/source2slice/NVD/CVE_2008_1390_PATCHED_generic_http_callback.c strdup 130'
p719
I0
sS'3 /home/speedy/test/source2slice/NVD/CVE_2015_0833_PATCHED_NS_main.c fclose 185'
p720
I0
sS'214 /home/speedy/test/source2slice/NVD/CVE_2008_1390_PATCHED_generic_http_callback.c strlen 108'
p721
I0
sS'755 /home/speedy/test/source2slice/NVD/CVE_2015_0833_VULN_NS_main.c getenv 57'
p722
I0
sS'174 /home/speedy/test/source2slice/NVD/CVE_2014_3640_PATCHED_udp_input.c strerror 157'
p723
I0
sS'108 /home/speedy/test/source2slice/NVD/CVE_2013_6380_VULN_aac_send_raw_srb.c memset 42'
p724
I0
sS'102 /home/speedy/test/source2slice/NVD/CVE_2010_3848_VULN_econet_sendmsg.c memset 157'
p725
I1
sS'311 /home/speedy/test/source2slice/NVD/CVE_2015_1159_PATCHED_cgi_puts.c fputs 14'
p726
I0
sS'491 /home/speedy/test/source2slice/NVD/CVE_2014_5471_VULN_isofs_read_inode.c memcpy 35'
p727
I0
sS'399 /home/speedy/test/source2slice/NVD/CVE_2009_2287_VULN_kvm_arch_vcpu_ioctl_set_sregs.c memcpy 42'
p728
I1
sS'161 /home/speedy/test/source2slice/NVD/CVE_2014_5272_VULN_decode_frame.c memset 75'
p729
I0
sS'111 /home/speedy/test/source2slice/NVD/CVE_2013_7008_VULN_decode_slice_header.c memset 388'
p730
I0
sS'42 /home/speedy/test/source2slice/NVD/CVE_2014_3537_VULN_get_file.c snprintf 26'
p731
I0
sS'37 /home/speedy/test/source2slice/NVD/CVE_2014_3537_VULN_get_file.c snprintf 76'
p732
I1
sS'354 /home/speedy/test/source2slice/NVD/CVE_2007_6151_VULN_isdn_ioctl.c memcpy 428'
p733
I1
sS'447 /home/speedy/test/source2slice/NVD/CVE_2013_7270_VULN_packet_recvmsg.c memcpy 119'
p734
I1
sS'36 /home/speedy/test/source2slice/NVD/CVE_2014_3537_VULN_get_file.c snprintf 120'
p735
I1
sS'454 /home/speedy/test/source2slice/NVD/CVE_2014_2099_PATCHED_msrle_decode_frame.c memcpy 44'
p736
I0
sS'338 /home/speedy/test/source2slice/NVD/CVE-2016-8658_VULN_brcmf_cfg80211_start_ap.c memcpy 47'
p737
I1
sS'383 /home/speedy/test/source2slice/NVD/CVE_2008_5134_PATCHED_lbs_process_bss.c memcpy 95'
p738
I0
sS'480 /home/speedy/test/source2slice/NVD/CVE_2014_4655_PATCHED_snd_ctl_elem_add.c memcpy 29'
p739
I0
sS'595 /home/speedy/test/source2slice/NVD/CVE_2014_3523_PATCHED_winnt_accept.c strcmp 50'
p740
I0
sS'694 /home/speedy/test/source2slice/NVD/CVE_2008_1390_PATCHED_generic_http_callback.c sscanf 15'
p741
I0
sS'216 /home/speedy/test/source2slice/NVD/CVE_2008_1390_PATCHED_generic_http_callback.c strlen 65'
p742
I0
sS'318 /home/speedy/test/source2slice/NVD/CVE_2015_1159_VULN_cgi_puts.c fputs 41'
p743
I1
sS'534 /home/speedy/test/source2slice/NVD/CVE_2014_1642_VULN_pirq_guest_bind.c xmalloc 36'
p744
I0
sS'745 /home/speedy/test/source2slice/NVD/CVE_2015_0833_PATCHED_NS_main.c getenv 234'
p745
I0
sS'508 /home/speedy/test/source2slice/NVD/CVE_2007_6151_VULN_isdn_ioctl.c strchr 408'
p746
I0
sS'649 /home/speedy/test/source2slice/NVD/CVE_2015_1158_VULN_add_job.c strcmp 602'
p747
I1
sS'682 /home/speedy/test/source2slice/NVD/CVE_2008_1390_PATCHED_generic_http_callback.c strcpy 111'
p748
I0
sS'328 /home/speedy/test/source2slice/NVD/CVE-2016-2327_VULN_apng_encode_frame.c memcpy 61'
p749
I1
sS'250 /home/speedy/test/source2slice/NVD/CVE_2008_1390_VULN_generic_http_callback.c sprintf 83'
p750
I1
sS'406 /home/speedy/test/source2slice/NVD/CVE_2010_2521_PATCHED_read_buf.c memcpy 38'
p751
I0
sS'648 /home/speedy/test/source2slice/NVD/CVE_2015_1158_VULN_add_job.c strcmp 602'
p752
I1
sS'523 /home/speedy/test/source2slice/NVD/CVE_2014_3537_PATCHED_get_file.c strchr 78'
p753
I0
sS'488 /home/speedy/test/source2slice/NVD/CVE_2014_5471_PATCHED_isofs_read_inode.c memcpy 40'
p754
I0
sS'714 /home/speedy/test/source2slice/NVD/CVE_2013_5642_PATCHED_process_sdp.c sscanf 159'
p755
I0
sS'449 /home/speedy/test/source2slice/NVD/CVE_2014_0160_PATCHED_tls1_process_heartbeat.c memcpy 38'
p756
I0
sS'193 /home/speedy/test/source2slice/NVD/CVE_2005_4618_PATCHED_sysctl_string.c strlen 14'
p757
I0
s.