(dp0
S'./NVD/CVE_2010_2498_VULN_psh_glyph_find_strong_points.c'
p1
(lp2
I27
aI35
asS'./NVD/CVE_2014_3601_VULN_kvm_iommu_map_pages.c'
p3
(lp4
I68
asS'./NVD/CVE_2013_6436_VULN_lxcDomainGetMemoryParameters.c'
p5
(lp6
I7
aI11
aI13
aI20
aI36
aI43
aI50
asS'./NVD/CVE-2015-2712_VULN_CheckHeapLengthCondition.c'
p7
(lp8
I33
aI34
asS'./NVD/CVE_2015_2922_VULN_ndisc_router_discovery.c'
p9
(lp10
I136
asS'./NVD/CVE-2016-4805_VULN_ppp_register_net_channel.c'
p11
(lp12
I14
asS'./NVD/CVE_2009_1298_VULN_ip_frag_reasm.c'
p13
(lp14
I104
asS'./NVD/CVE_2014_2739_VULN_cma_req_handler.c'
p15
(lp16
I6
aI7
aI8
aI9
aI10
aI11
aI12
aI13
aI14
aI59
aI60
aI61
aI62
aI63
aI64
aI65
aI66
aI67
aI68
aI69
aI70
aI71
aI78
aI79
asS'./NVD/CVE_2009_1389_VULN_rtl_set_rx_max_size.c'
p17
(lp18
I4
asS'./NVD/CVE_2008_3792_VULN_sctp_setsockopt_del_key.c'
p19
(lp20
I11
asS'./NVD/CVE_2009_4895_VULN_tty_fasync.c'
p21
(lp22
I29
asS'./NVD/CVE_2015_2192_VULN_dissect_osd2_cdb_continuation.c'
p23
(lp24
I76
asS'./NVD/CVE-2016-9373_VULN_cb_wstr_postprocess.c'
p25
(lp26
I58
asS'./NVD/CVE_2005_3356_VULN_do_create.c'
p27
(lp28
I4
aI8
aI10
aI12
aI20
aI22
aI23
aI24
aI26
asS'./NVD/CVE_2013_4932_VULN_elem_v_short.c'
p29
(lp30
I18
aI19
aI27
asS'./NVD/CVE_2013_5717_VULN_wmem_block_alloc.c'
p31
(lp32
I17
aI18
aI25
aI26
aI27
aI30
asS'./NVD/CVE_2010_2798_VULN_gfs2_dirent_find_space.c'
p33
(lp34
I10
asS'./NVD/CVE_2014_2241_VULN_cf2_initGlobalRegionBuffer.c'
p35
(lp36
I5
asS'./NVD/CVE_2009_2768_VULN_load_flat_shared_library.c'
p37
(lp38
I21
aI22
aI23
aI24
asS'./NVD/CVE_2014_3184_VULN_sp_report_fixup.c'
p39
(lp40
I4
asS'./NVD/CVE_2014_3511_VULN_ssl23_get_client_hello.c'
p41
(lp42
I114
aI115
aI118
aI121
aI122
aI123
aI130
aI198
aI275
aI282
aI301
aI341
aI384
asS'./NVD/CVE_2014_5272_VULN_decode_frame.c'
p43
(lp44
I184
aI186
asS'./NVD/CVE_2009_3547_VULN_pipe_rdwr_open.c'
p45
(lp46
I5
aI6
aI7
aI8
aI11
asS'./NVD/CVE_2013_6381_VULN_qeth_snmp_command.c'
p47
(lp48
I6
asS'./NVD/CVE_2014_3185_VULN_command_port_read_callback.c'
p49
(lp50
I34
asS'./NVD/CVE_2013_7014_VULN_add_bytes_l2_c.c'
p51
(lp52
I4
asS'./NVD/CVE_2014_6423_VULN_tvb_raw_text_add.c'
p53
(lp54
I16
asS'./NVD/CVE_2014_2672_VULN_ath_tx_aggr_sleep.c'
p55
(lp56
I13
aI14
asS'./NVD/CVE_2009_4308_VULN_ext4_decode_error.c'
p57
(lp58
I14
asS'./NVD/CVE_2010_2478_VULN_ethtool_get_rxnfc.c'
p59
(lp60
I16
aI17
asS'./NVD/CVE_2008_5029_VULN___scm_destroy.c'
p61
(lp62
I8
aI9
aI10
asS'./NVD/CVE_2014_0038_VULN_compat_sys_recvmmsg.c'
p63
(lp64
I11
aI12
aI13
aI14
aI17
aI20
aI25
asS'./NVD/CVE_2010_3774_VULN_NS_SecurityHashURI.c'
p65
(lp66
I28
asS'./NVD/CVE_2013_7113_VULN_dissect_bssgp.c'
p67
(lp68
I14
aI15
asS'./NVD/CVE_2008_1390_VULN_generic_http_callback.c'
p69
(lp70
I33
asS'./NVD/CVE_2005_4886_VULN_selinux_parse_skb_ipv6.c'
p71
(lp72
I18
aI19
asS'./NVD/CVE_2014_3184_VULN_mr_report_fixup.c'
p73
(lp74
I4
asS'./NVD/CVE_2005_2492_VULN_raw_probe_proto_opt.c'
p75
(lp76
I33
asS'./NVD/CVE_2013_7027_VULN_ieee80211_radiotap_iterator_init.c'
p77
(lp78
I40
asS'./NVD/CVE_2014_1497_VULN_WaveReader__LoadFormatChunk.c'
p79
(lp80
I78
asS'./NVD/CVE_2009_0787_VULN_ecryptfs_write_metadata_to_contents.c'
p81
(lp82
I3
aI4
aI9
asS'./NVD/CVE_2014_0221_VULN_dtls1_get_message_fragment.c'
p83
(lp84
I68
asS'./NVD/CVE_2005_3807_VULN_fcntl_setlease.c'
p85
(lp86
I13
aI18
aI24
asS'./NVD/CVE_2014_2523_VULN_dccp_packet.c'
p87
(lp88
I12
asS'./NVD/CVE_2013_7271_VULN_x25_recvmsg.c'
p89
(lp90
I93
asS'./NVD/CVE_2013_7010_VULN_add_bytes_c.c'
p91
(lp92
I3
asS'./NVD/CVE_2010_1188_VULN_tcp_rcv_state_process.c'
p93
(lp94
I12
aI19
aI39
aI41
aI43
aI62
aI71
aI77
aI188
aI197
aI205
aI210
asS'./NVD/CVE_2014_3610_VULN_wrmsr_interception.c'
p95
(lp96
I13
asS'./NVD/CVE_2009_0028_VULN_copy_process.c'
p97
(lp98
I244
asS'./NVD/CVE_2009_0935_VULN_inotify_read.c'
p99
(lp100
I4
aI13
aI17
aI18
aI19
aI20
aI22
aI24
aI25
aI26
aI29
aI30
aI31
aI34
aI37
aI38
aI39
aI41
aI42
aI44
aI45
aI46
aI48
aI49
aI50
aI51
aI52
aI53
aI54
aI55
aI57
aI59
aI61
aI62
aI63
aI64
aI65
aI67
aI68
aI69
aI71
aI72
aI74
aI75
aI76
aI77
aI79
aI80
aI83
aI85
aI87
aI89
asS'./NVD/CVE_2014_1509_VULN__cairo_dwrite_load_truetype_table.c'
p101
(lp102
I26
aI27
asS'./NVD/CVE_2013_4932_VULN_elem_tv.c'
p103
(lp104
I22
aI23
aI24
aI25
aI34
asS'./NVD/CVE_2005_3181_VULN_open_namei.c'
p105
(lp106
I144
aI149
aI156
asS'./NVD/CVE-2015-5156_VULN_virtnet_probe.c'
p107
(lp108
I44
aI46
asS'./NVD/CVE_2015_1158_VULN_cupsdProcessIPPRequest.c'
p109
(lp110
I1
aI20
aI22
aI33
aI35
aI40
aI42
aI57
aI59
aI79
aI82
aI89
aI91
aI100
aI107
aI113
aI132
aI134
aI177
aI179
aI199
aI203
aI251
aI254
aI259
aI261
aI267
aI269
aI271
aI272
aI282
aI284
aI298
aI302
aI306
aI310
aI314
aI318
aI322
aI326
aI330
aI334
aI338
aI342
aI346
aI350
aI356
aI360
aI364
aI368
aI372
aI376
aI380
aI384
aI388
aI392
aI396
aI400
aI404
aI409
aI414
aI418
aI422
aI426
aI430
aI434
aI438
aI442
aI447
aI451
aI455
aI459
aI463
aI467
aI469
aI480
aI488
aI490
aI506
aI512
aI546
aI548
aI557
aI559
aI566
aI569
asS'./NVD/CVE_2008_3915_VULN_init_state.c'
p111
(lp112
I14
asS'./NVD/CVE_2014_4027_VULN_rd_build_device_space.c'
p113
(lp114
I3
aI6
aI10
aI11
aI12
aI13
aI16
aI17
aI18
aI20
aI22
aI24
aI25
aI26
aI27
aI28
aI31
aI32
aI43
aI59
aI70
aI71
aI72
aI74
asS'./NVD/CVE_2015_3395_VULN_msrle_decode_pal4.c'
p115
(lp116
I8
aI9
aI10
aI13
aI16
aI17
aI26
aI36
aI42
aI53
aI59
aI69
aI79
aI81
asS'./NVD/CVE_2015_0833_VULN_NS_main.c'
p117
(lp118
I72
aI312
aI372
asS'./NVD/CVE_2013_6367_VULN_apic_get_tmcct.c'
p119
(lp120
I10
asS'./NVD/CVE_2015_1159_VULN_cgi_puts.c'
p121
(lp122
I1
aI11
aI12
aI13
aI15
aI17
aI18
aI20
aI22
aI23
aI24
aI25
aI27
aI30
aI31
aI33
aI35
aI37
aI38
aI40
aI41
aI50
aI51
aI52
aI54
asS'./NVD/CVE_2013_7019_VULN_get_cox.c'
p123
(lp124
I17
aI18
aI19
aI20
asS'./NVD/CVE_2010_1083_VULN_processcompl_compat.c'
p125
(lp126
I30
asS'./NVD/CVE_2014_3534_VULN___poke_user.c'
p127
(lp128
I14
asS'./NVD/CVE_2014_3509_VULN_ssl_parse_serverhello_tlsext.c'
p129
(lp130
I26
aI46
aI61
aI63
aI64
aI65
aI67
aI68
aI70
aI71
aI87
aI88
aI94
aI107
aI113
aI125
aI126
aI139
aI155
aI161
aI165
aI166
aI171
aI172
aI182
aI198
aI206
aI215
aI228
aI234
aI257
asS'./NVD/CVE_2013_6336_VULN_ieee802154_addr_update.c'
p131
(lp132
I36
aI44
asS'./NVD/CVE-2016-2329_VULN_tiff_decode_tag.c'
p133
(lp134
I60
aI228
aI292
asS'./NVD/CVE_2008_2826_VULN_sctp_getsockopt_local_addrs_old.c'
p135
(lp136
I25
asS'./NVD/CVE_2008_3792_VULN_sctp_getsockopt_hmac_ident.c'
p137
(lp138
I5
aI8
aI10
aI12
aI13
aI14
aI15
asS'./NVD/CVE_2008_4989_VULN__gnutls_x509_verify_certificate.c'
p139
(lp140
I1
aI18
aI28
aI36
aI51
aI52
aI53
aI54
aI55
aI56
aI57
aI59
aI63
aI71
asS'./NVD/CVE_2009_4141_VULN_fasync_helper.c'
p141
(lp142
I2
aI3
aI4
aI8
aI11
aI12
aI13
aI14
aI17
aI18
aI19
aI20
aI24
aI25
aI26
aI27
aI28
aI29
aI30
aI31
aI33
aI37
aI38
aI39
aI40
aI41
aI42
aI43
aI46
aI47
aI48
aI49
asS'./NVD/CVE_2009_2847_VULN_do_sigaltstack.c'
p143
(lp144
I7
aI8
aI9
aI10
aI54
aI56
aI60
asS'./NVD/CVE_2014_1522_VULN_ComputeCustom.c'
p145
(lp146
I22
aI23
asS'./NVD/CVE_2014_5206_VULN_do_remount.c'
p147
(lp148
I27
asS'./NVD/CVE_2009_1192_VULN_agp_generic_alloc_pages.c'
p149
(lp150
I7
asS'./NVD/CVE_2010_3066_VULN_io_submit_one.c'
p151
(lp152
I47
asS'./NVD/CVE_2014_1510_VULN_nsGlobalWindow__BuildURIfromBase.c'
p153
(lp154
I3
aI10
aI51
aI54
aI55
aI56
aI57
aI58
asS'./NVD/CVE_2013_7264_VULN_l2tp_ip_recvmsg.c'
p155
(lp156
I13
aI14
asS'./NVD/CVE_2009_0946_VULN_tt_cmap8_validate.c'
p157
(lp158
I14
asS'./NVD/CVE_2009_2287_VULN_kvm_arch_vcpu_ioctl_set_sregs.c'
p159
(lp160
I19
asS'./NVD/CVE_2014_2038_VULN_nfs_can_extend_write.c'
p161
(lp162
I7
aI8
aI10
asS'./NVD/CVE_2014_2309_VULN_ip6_route_add.c'
p163
(lp164
I45
asS'./NVD/CVE_2010_2492_VULN_ecryptfs_release_messaging.c'
p165
(lp166
I22
asS'./NVD/CVE_2006_4813_VULN___block_prepare_write.c'
p167
(lp168
I34
aI40
aI82
aI83
aI102
aI113
asS'./NVD/CVE-2015-1872_VULN_ff_mjpeg_decode_sof.c'
p169
(lp170
I320
aI322
asS'./NVD/CVE_2010_3848_VULN_econet_sendmsg.c'
p171
(lp172
I16
aI20
aI24
aI26
aI31
aI33
aI46
aI63
aI68
aI69
aI70
aI125
aI127
aI131
aI142
aI144
aI151
aI186
aI187
aI188
aI189
aI190
aI191
aI192
aI193
aI196
aI197
aI198
aI199
aI200
aI201
aI202
aI204
aI205
aI206
aI212
aI213
aI214
aI231
aI242
aI244
asS'./NVD/CVE_2010_0623_VULN_futex_lock_pi.c'
p173
(lp174
I27
aI95
asS'./NVD/CVE_2015_0562_VULN_dissect_dec_rt.c'
p175
(lp176
I18
aI19
aI20
aI21
asS'./NVD/CVE_2015_0239_VULN_em_sysenter.c'
p177
(lp178
I12
aI18
aI31
aI32
aI33
aI34
aI35
aI36
aI37
aI38
aI39
aI40
aI41
aI45
aI46
aI48
aI49
aI58
aI61
asS'./NVD/CVE_2007_3642_VULN_decode_seq.c'
p179
(lp180
I39
asS'./NVD/CVE_2009_1389_VULN_rtl_hw_start_8168.c'
p181
(lp182
I11
asS'./NVD/CVE_2014_3610_VULN_handle_wrmsr.c'
p183
(lp184
I11
asS'./NVD/CVE_2009_1192_VULN_agp_generic_alloc_page.c'
p185
(lp186
I5
asS'./NVD/CVE_2010_1488_VULN_proc_oom_score.c'
p187
(lp188
I3
aI8
asS'./NVD/CVE_2006_3741_VULN_sys_perfmonctl.c'
p189
(lp190
I135
asS'./NVD/CVE_2014_4667_VULN_sctp_association_free.c'
p191
(lp192
I11
asS'./NVD/CVE_2006_2935_VULN_dvd_read_bca.c'
p193
(lp194
I11
asS'./NVD/CVE_2013_4932_VULN_elem_tv_short.c'
p195
(lp196
I23
aI24
aI25
aI26
aI37
asS'./NVD/CVE_2006_2934_VULN_do_basic_checks.c'
p197
(lp198
I39
asS'./NVD/CVE_2010_0006_VULN_ipv6_hop_jumbo.c'
p199
(lp200
I5
asS'./NVD/CVE_2015_4003_VULN_oz_usb_handle_ep_data.c'
p201
(lp202
I10
asS'./NVD/CVE_2014_2241_VULN_cf2_initLocalRegionBuffer.c'
p203
(lp204
I5
asS'./NVD/CVE_2009_0675_VULN_skfp_ioctl.c'
p205
(lp206
I19
aI20
asS'./NVD/CVE_2014_3631_VULN_assoc_array_gc.c'
p207
(lp208
I249
asS'./NVD/CVE_2010_2521_VULN_read_buf.c'
p209
(lp210
I32
aI35
asS'./NVD/CVE_2010_0727_VULN_gfs2_lock.c'
p211
(lp212
I9
asS'./NVD/CVE-2016-9685_VULN_xfs_attr_shortform_list.c'
p213
(lp214
I51
aI137
asS'./NVD/CVE_2013_6457_VULN_libxlDomainGetNumaParameters.c'
p215
(lp216
I38
asS'./NVD/CVE_2014_5471_VULN_parse_rock_ridge_inode_internal.c'
p217
(lp218
I3
aI18
aI115
aI121
aI127
aI133
aI198
aI199
aI200
aI201
aI202
aI203
asS'./NVD/CVE_2015_6246_VULN_dissect_wa_payload.c'
p219
(lp220
I250
aI251
aI253
aI256
aI263
aI264
asS'./NVD/CVE_2008_5134_VULN_lbs_process_bss.c'
p221
(lp222
I94
aI95
asS'./NVD/CVE_2009_1337_VULN_exit_notify.c'
p223
(lp224
I37
aI38
asS'./NVD/CVE_2009_2692_VULN_sock_sendpage.c'
p225
(lp226
I13
asS'./NVD/CVE_2014_0069_VULN_cifs_iovec_write.c'
p227
(lp228
I6
aI61
aI63
asS'./NVD/CVE_2015_2666_VULN_get_matching_model_microcode.c'
p229
(lp230
I17
asS'./NVD/CVE_2008_3792_VULN_sctp_setsockopt_active_key.c'
p231
(lp232
I11
asS'./NVD/CVE_2007_0006_VULN_key_alloc_serial.c'
p233
(lp234
I17
aI27
aI30
aI37
aI38
aI40
aI41
aI42
aI43
aI44
aI45
aI49
aI53
aI56
aI57
aI58
aI59
aI61
asS'./NVD/CVE-2016-7913_VULN_xc2028_set_config.c'
p235
(lp236
I21
asS'./NVD/CVE_2013_7270_VULN_packet_recvmsg.c'
p237
(lp238
I7
aI25
aI32
aI36
aI40
aI69
aI90
aI91
aI92
aI93
aI95
aI96
aI97
aI98
aI99
aI101
aI102
aI103
aI104
aI118
aI142
aI145
asS'./NVD/CVE-2016-4998_VULN_check_entry_size_and_hooks.c'
p239
(lp240
I12
asS'./NVD/CVE-2017-5548_VULN_atusb_read_reg.c'
p241
(lp242
I10
aI11
asS'./NVD/CVE_2009_1961_VULN_splice_from_pipe.c'
p243
(lp244
I20
aI22
asS'./NVD/CVE_2013_5600_VULN_nsFrameLoader__ReallyStartLoadingInternal.c'
p245
(lp246
I80
asS'./NVD/CVE_2014_1737_VULN_raw_cmd_copyin.c'
p247
(lp248
I16
aI17
aI35
aI48
asS'./NVD/CVE_2009_4410_VULN_fuse_ioctl_copy_user.c'
p249
(lp250
I38
asS'./NVD/CVE_2009_1360_VULN___inet6_check_established.c'
p251
(lp252
I56
aI60
asS'./NVD/CVE_2014_2099_VULN_msrle_decode_frame.c'
p253
(lp254
I30
asS'./NVD/CVE_2015_3008_VULN_handle_tcptls_connection.c'
p255
(lp256
I82
aI84
asS'./NVD/CVE_2008_3686_VULN_rt6_fill_node.c'
p257
(lp258
I83
asS'./NVD/CVE-2016-2330_VULN_gif_image_write_image.c'
p259
(lp260
I102
asS'./NVD/CVE_2014_5472_VULN_parse_rock_ridge_inode.c'
p261
(lp262
I3
aI11
asS'./NVD/CVE_2009_1336_VULN_nfs_init_server.c'
p263
(lp264
I51
aI52
aI53
aI54
aI55
aI56
aI57
aI58
asS'./NVD/CVE_2006_1525_VULN_inet_rtm_getroute.c'
p265
(lp266
I19
asS'./NVD/CVE-2016-9793_VULN_sock_setsockopt.c'
p267
(lp268
I61
aI97
asS'./NVD/CVE_2014_1481_VULN_js__Invoke.c'
p269
(lp270
I7
aI17
aI19
aI20
aI21
aI22
aI23
aI27
asS'./NVD/CVE_2015_3808_VULN_dissect_lbmr_pser.c'
p271
(lp272
I52
aI58
asS'./NVD/CVE_2014_4655_VULN_snd_ctl_elem_add.c'
p273
(lp274
I11
aI12
aI21
aI22
aI23
aI24
aI25
aI26
aI27
aI28
aI29
aI30
aI31
aI33
aI34
aI35
aI41
aI84
aI93
aI101
aI107
aI108
aI110
aI112
asS'./NVD/CVE_2007_4521_VULN_play_message.c'
p275
(lp276
I36
asS'./NVD/CVE_2015_6249_VULN_dissect_wccp2r1_address_table_info.c'
p277
(lp278
I32
aI75
aI81
aI94
asS'./NVD/CVE_2015_0820_VULN_js__NewReshapedObject.c'
p279
(lp280
I28
asS'./NVD/CVE_2010_2805_VULN_FT_Stream_EnterFrame.c'
p281
(lp282
I57
asS'./NVD/CVE_2013_7024_VULN_jpeg2000_decode_tile.c'
p283
(lp284
I88
aI93
aI134
aI139
asS'./NVD/CVE-2015-5158_VULN_scsi_req_parse_cdb.c'
p285
(lp286
I6
asS'./NVD/CVE_2006_5462_VULN_RSA_CheckSign.c'
p287
(lp288
I36
aI37
asS'./NVD/CVE_2009_1961_VULN_ocfs2_file_splice_write.c'
p289
(lp290
I15
aI35
asS'./NVD/CVE_2009_1046_VULN_set_selection.c'
p291
(lp292
I136
asS'./NVD/CVE_2010_2500_VULN_gray_render_span.c'
p293
(lp294
I14
asS'./NVD/CVE_2013_7010_VULN_diff_bytes_c.c'
p295
(lp296
I17
asS'./NVD/CVE_2008_1294_VULN_sys_setrlimit.c'
p297
(lp298
I31
aI36
aI45
aI46
aI47
aI48
aI49
aI50
aI51
aI52
asS'./NVD/CVE_2007_4571_VULN_snd_mem_proc_read.c'
p299
(lp300
I2
aI4
aI11
aI12
aI13
aI17
aI18
aI19
aI20
aI21
aI22
aI25
asS'./NVD/CVE_2013_5719_VULN_dissect_r3_upstreammfgfield_checksumresults.c'
p301
(lp302
I4
aI24
aI30
asS'./NVD/CVE_2010_1437_VULN_find_keyring_by_name.c'
p303
(lp304
I35
asS'./NVD/CVE_2013_7281_VULN_dgram_recvmsg.c'
p305
(lp306
I33
asS'./NVD/CVE-2016-2550_VULN_unix_detach_fds.c'
p307
(lp308
I9
asS'./NVD/CVE_2013_7013_VULN_g2m_init_buffers.c'
p309
(lp310
I16
asS'./NVD/CVE_2005_0146_VULN_nsTextEditorMouseListener__MouseClick.c'
p311
(lp312
I5
aI6
asS'./NVD/CVE_2014_4608_VULN_lzo1x_decompress_safe.c'
p313
(lp314
I34
aI41
aI57
aI58
aI71
aI95
aI98
aI113
aI116
aI130
aI140
aI148
aI157
aI170
aI177
aI178
asS'./NVD/CVE_2013_4932_VULN_elem_lv.c'
p315
(lp316
I21
aI23
aI24
aI34
asS'./NVD/CVE_2015_4652_VULN_de_bcd_num.c'
p317
(lp318
I4
aI5
aI6
aI8
aI39
aI40
aI41
aI43
aI44
aI46
aI47
aI49
aI50
aI54
aI55
aI56
aI58
asS'./NVD/CVE_2014_2907_VULN_srtp_add_address.c'
p319
(lp320
I73
aI74
asS'./NVD/CVE_2014_4943_VULN_pppol2tp_setsockopt.c'
p321
(lp322
I12
asS'./NVD/CVE_2009_3726_VULN_nfs4_proc_lock.c'
p323
(lp324
I16
aI17
aI22
aI23
asS'./NVD/CVE_2014_1690_VULN_help.c'
p325
(lp326
I32
aI36
aI37
aI38
aI40
asS'./NVD/CVE_2006_6106_VULN_cmtp_recv_interopmsg.c'
p327
(lp328
I66
aI67
aI90
aI91
aI106
aI107
asS'./NVD/CVE_2008_5079_VULN_svc_listen.c'
p329
(lp330
I15
asS'./NVD/CVE_2013_4932_VULN_elem_telv.c'
p331
(lp332
I32
aI34
aI35
aI51
asS'./NVD/CVE_2010_2962_VULN_i915_gem_pread_ioctl.c'
p333
(lp334
I21
aI22
aI34
asS'./NVD/CVE_2014_0205_VULN_futex_wait.c'
p335
(lp336
I29
aI40
aI43
aI49
aI50
aI56
aI73
aI74
asS'./NVD/CVE_2014_2889_VULN_bpf_jit_compile.c'
p337
(lp338
I451
aI452
aI454
asS'./NVD/CVE-2015-3815_VULN_logcat_log.c'
p339
(lp340
I2
aI27
aI32
aI37
asS'./NVD/CVE_2013_7267_VULN_atalk_recvmsg.c'
p341
(lp342
I5
aI34
aI35
aI36
aI37
aI38
aI39
aI41
asS'./NVD/CVE_2014_3633_VULN_qemuDomainGetBlockIoTune.c'
p343
(lp344
I64
aI65
asS'./NVD/CVE_2015_3331_VULN___driver_rfc4106_decrypt.c'
p345
(lp346
I52
aI77
asS'./NVD/CVE_2015_3813_VULN_fragment_add_work.c'
p347
(lp348
I157
aI158
asS'./NVD/CVE_2007_1000_VULN_ipv6_getsockopt_sticky.c'
p349
(lp350
I4
aI7
asS'./NVD/CVE_2014_1481_VULN_IsCacheableGetPropCallNative.c'
p351
(lp352
I5
aI8
aI10
aI11
asS'./NVD/CVE_2014_2097_VULN_tak_decode_frame.c'
p353
(lp354
I14
aI17
aI53
aI54
aI55
aI56
aI71
aI85
aI101
aI111
aI159
aI162
aI170
asS'./NVD/CVE_2015_3809_VULN_dissect_lbmr_pser.c'
p355
(lp356
I52
aI58
asS'./NVD/CVE_2014_4174_VULN_libpcap_read_header.c'
p357
(lp358
I39
aI45
aI46
aI49
aI50
aI51
aI52
aI53
aI54
aI55
aI58
aI61
aI62
aI63
aI64
aI65
aI66
aI67
aI68
aI69
aI70
aI71
aI72
aI73
aI75
asS'./NVD/CVE_2010_1087_VULN_nfs_wait_on_request.c'
p359
(lp360
I4
aI6
aI7
aI8
aI9
aI10
aI11
asS'./NVD/CVE-2016-2213_VULN_jpeg2000_decode_tile.c'
p361
(lp362
I71
aI72
aI73
aI74
aI75
asS'./NVD/CVE_2005_3359_VULN___sock_create.c'
p363
(lp364
I76
asS'./NVD/CVE-2016-5829_VULN_hiddev_ioctl_usage.c'
p365
(lp366
I29
aI32
aI36
aI49
aI54
aI59
aI62
aI68
aI70
aI72
aI73
aI74
aI75
asS'./NVD/CVE_2014_5045_VULN_mountpoint_last.c'
p367
(lp368
I56
asS'./NVD/CVE_2010_2492_VULN_ecryptfs_init_messaging.c'
p369
(lp370
I14
aI15
aI16
aI18
aI25
asS'./NVD/CVE-2015-8785_VULN_fuse_fill_write_pages.c'
p371
(lp372
I50
asS'./NVD/CVE_2013_7017_VULN_ff_jpeg2000_init_component.c'
p373
(lp374
I83
aI179
aI188
asS'./NVD/CVE_2015_4652_VULN_de_emerg_num_list.c'
p375
(lp376
I5
aI7
aI10
aI41
aI43
aI45
aI46
aI47
aI48
aI49
aI51
aI52
aI54
aI55
aI57
aI58
aI62
aI63
aI64
aI66
asS'./NVD/CVE_2008_0420_VULN_nsBMPDecoder__ProcessData.c'
p377
(lp378
I49
asS'./NVD/CVE_2013_5642_VULN_process_sdp.c'
p379
(lp380
I541
aI588
aI605
aI628
asS'./NVD/CVE_2014_3183_VULN_logi_dj_ll_raw_request.c'
p381
(lp382
I18
asS'./NVD/CVE_2014_3184_VULN_pl_report_fixup.c'
p383
(lp384
I4
asS'./NVD/CVE_2014_2851_VULN_ping_init_sock.c'
p385
(lp386
I5
aI6
aI11
aI18
aI24
asS'./NVD/CVE-2017-6474_VULN_nstrace_set_start_time.c'
p387
(lp388
I9
asS'./NVD/CVE_2009_0946_VULN_ft_smooth_render_generic.c'
p389
(lp390
I61
asS'./NVD/CVE_2015_1158_VULN_print_job.c'
p391
(lp392
I1
aI26
aI29
aI56
aI58
aI66
aI68
aI72
aI74
aI81
aI83
aI88
aI90
aI105
aI107
aI119
aI121
aI129
aI131
aI156
aI159
aI166
aI168
aI190
aI192
aI199
aI201
aI206
aI208
aI222
aI224
aI234
aI236
aI241
aI243
aI252
aI254
asS'./NVD/CVE_2005_3848_VULN_icmp_push_reply.c'
p393
(lp394
I6
aI7
aI8
aI9
aI11
asS'./NVD/CVE_2006_0039_VULN_do_add_counters.c'
p395
(lp396
I33
asS'./NVD/CVE_2010_1148_VULN_cifs_create.c'
p397
(lp398
I45
aI50
aI51
asS'./NVD/CVE_2015_1158_VULN_authenticate_job.c'
p399
(lp400
I1
aI25
aI27
aI31
aI33
aI37
aI39
aI53
aI55
aI63
aI65
aI75
aI77
aI81
aI83
aI89
aI91
aI95
aI97
aI105
aI107
aI115
aI118
aI131
aI133
aI142
aI144
aI148
aI150
aI158
aI159
aI162
aI164
asS'./NVD/CVE_2009_4005_VULN_collect_rx_frame.c'
p401
(lp402
I40
aI41
asS'./NVD/CVE_2009_0835_VULN___secure_computing.c'
p403
(lp404
I9
aI10
asS'./NVD/CVE_2013_4936_VULN_IsDFP_Frame.c'
p405
(lp406
I17
asS'./NVD/CVE-2015-4002_VULN_oz_usb_rx.c'
p407
(lp408
I28
aI29
aI30
aI31
asS'./NVD/CVE_2014_2286_VULN_httpd_helper_thread.c'
p409
(lp410
I12
aI16
aI78
aI79
aI80
aI89
aI90
asS'./NVD/CVE_2014_1642_VULN_pirq_guest_bind.c'
p411
(lp412
I16
aI43
aI44
asS'./NVD/CVE_2010_1083_VULN_proc_reapurb.c'
p413
(lp414
I4
aI5
asS'./NVD/CVE_2013_5634_VULN_kvm_arch_vcpu_ioctl_run.c'
p415
(lp416
I6
aI7
asS'./NVD/CVE_2009_3624_VULN_get_instantiation_keyring.c'
p417
(lp418
I28
asS'./NVD/CVE_2010_3015_VULN_ext4_ext_get_blocks.c'
p419
(lp420
I81
asS'./NVD/CVE_2010_1173_VULN_sctp_process_unk_param.c'
p421
(lp422
I22
aI23
aI26
aI28
asS'./NVD/CVE_2013_6380_VULN_aac_send_raw_srb.c'
p423
(lp424
I49
asS'./NVD/CVE_2005_3806_VULN_ipv6_flowlabel_opt.c'
p425
(lp426
I75
asS'./NVD/CVE-2014-0182_VULN_virtio_load.c'
p427
(lp428
I26
asS'./NVD/CVE_2008_3792_VULN_sctp_setsockopt_auth_chunk.c'
p429
(lp430
I10
asS'./NVD/CVE_2015_2191_VULN_dissect_tnef.c'
p431
(lp432
I119
asS'./NVD/CVE_2014_5472_VULN_parse_rock_ridge_inode_internal.c'
p433
(lp434
I3
aI18
aI115
aI121
aI127
aI133
aI198
aI199
aI200
aI201
aI202
aI203
asS'./NVD/CVE_2005_3847_VULN_handle_stop_signal.c'
p435
(lp436
I5
asS'./NVD/CVE_2013_7011_VULN_read_header.c'
p437
(lp438
I27
aI28
aI29
aI30
asS'./NVD/CVE-2016-4439_VULN_esp_reg_write.c'
p439
(lp440
I14
asS'./NVD/CVE_2013_7266_VULN_mISDN_sock_recvmsg.c'
p441
(lp442
I7
aI25
aI26
aI27
aI35
aI40
aI41
aI42
aI43
aI44
asS'./NVD/CVE_2014_3184_VULN_lg_report_fixup.c'
p443
(lp444
I8
aI15
asS'./NVD/CVE_2014_0160_VULN_tls1_process_heartbeat.c'
p445
(lp446
I9
aI10
aI11
aI12
aI28
aI43
asS'./NVD/CVE_2009_2846_VULN_eisa_eeprom_read.c'
p447
(lp448
I8
asS'./NVD/CVE-2015-7176_VULN_AnimationThread.c'
p449
(lp450
I74
aI75
asS'./NVD/CVE_2013_5599_VULN_nsComputedDOMStyle__GetStyleContextForElement.c'
p451
(lp452
I12
asS'./NVD/CVE_2013_5719_VULN_dissect_r3_upstreammfgfield_capabilities.c'
p453
(lp454
I38
asS'./NVD/CVE_2013_7022_VULN_g2m_init_buffers.c'
p455
(lp456
I6
aI7
asS'./NVD/CVE_2013_5596_VULN_RasterImage__DoError.c'
p457
(lp458
I14
asS'./NVD/CVE_2005_2617_VULN_syscall32_setup_pages.c'
p459
(lp460
I27
asS'./NVD/CVE_2013_5651_VULN_virBitmapParse.c'
p461
(lp462
I8
aI41
aI44
aI46
aI54
aI55
aI56
aI59
aI60
aI61
aI66
aI72
aI74
aI79
aI80
aI81
aI95
aI99
aI100
aI102
asS'./NVD/CVE_2009_3288_VULN_sg_build_indirect.c'
p463
(lp464
I74
asS'./NVD/CVE_2010_1083_VULN_processcompl.c'
p465
(lp466
I30
aI37
asS'./NVD/CVE_2010_2962_VULN_i915_gem_pwrite_ioctl.c'
p467
(lp468
I21
aI22
aI56
asS'./NVD/CVE_2014_3601_VULN_kvm_unpin_pages.c'
p469
(lp470
I3
aI5
aI6
asS'./NVD/CVE_2005_3857_VULN_time_out_leases.c'
p471
(lp472
I13
asS'./NVD/CVE_2015_3811_VULN_wcp_uncompress.c'
p473
(lp474
I112
asS'./NVD/CVE_2009_1527_VULN_ptrace_attach.c'
p475
(lp476
I15
aI59
asS'./NVD/CVE_2014_3122_VULN_try_to_unmap_cluster.c'
p477
(lp478
I64
aI65
asS'./NVD/CVE_2009_1338_VULN_kill_something_info.c'
p479
(lp480
I21
asS'./NVD/CVE-2015-4511_VULN_ne_parse.c'
p481
(lp482
I9
asS'./NVD/CVE_2015_6243_VULN_dissector_get_default_string_handle.c'
p483
(lp484
I4
asS'./NVD/CVE_2008_4302_VULN_pipe_to_file.c'
p485
(lp486
I39
aI48
aI78
aI82
aI95
asS'./NVD/CVE_2009_0946_VULN_tt_cmap12_validate.c'
p487
(lp488
I18
asS'./NVD/CVE-2015-3456_VULN_fdctrl_read_data.c'
p489
(lp490
I5
aI15
asS'./NVD/CVE_2014_4652_VULN_snd_ctl_elem_user_tlv.c'
p491
(lp492
I24
aI25
aI26
aI27
aI29
asS'./NVD/CVE_2014_4943_VULN_pppol2tp_getsockopt.c'
p493
(lp494
I12
asS'./NVD/CVE_2010_2226_VULN_xfs_swapext.c'
p495
(lp496
I16
asS'./NVD/CVE_2013_7009_VULN_rpza_decode_stream.c'
p497
(lp498
I17
aI64
aI81
aI130
aI151
asS'./NVD/CVE_2007_6151_VULN_isdn_ioctl.c'
p499
(lp500
I377
asS'./NVD/CVE_2010_1083_VULN_proc_reapurbnonblock_compat.c'
p501
(lp502
I5
aI6
aI7
asS'./NVD/CVE_2014_3534_VULN___poke_user_compat.c'
p503
(lp504
I18
asS'./NVD/CVE_2013_5618_VULN_Element__UnbindFromTree.c'
p505
(lp506
I29
asS'./NVD/CVE_2014_1738_VULN_raw_cmd_copyout.c'
p507
(lp508
I7
asS'./NVD/CVE_2010_3080_VULN_snd_seq_oss_open.c'
p509
(lp510
I111
aI112
aI115
aI117
asS'./NVD/CVE_2005_2492_VULN_rawv6_probe_proto_opt.c'
p511
(lp512
I33
asS'./NVD/CVE-2016-7912_VULN_ffs_user_copy_worker.c'
p513
(lp514
I18
aI19
aI24
asS'./NVD/CVE-2016-5280_VULN_WalkDescendantsResetAutoDirection.c'
p515
(lp516
I14
asS'./NVD/CVE_2010_2495_VULN_pppol2tp_sendmsg.c'
p517
(lp518
I81
asS'./NVD/CVE_2013_7268_VULN_ipx_recvmsg.c'
p519
(lp520
I55
asS'./NVD/CVE_2013_4932_VULN_elem_tlv_e.c'
p521
(lp522
I24
aI25
aI39
asS'./NVD/CVE_2013_7269_VULN_nr_recvmsg.c'
p523
(lp524
I48
asS'./NVD/CVE_2009_4307_VULN_ext4_fill_flex_info.c'
p525
(lp526
I11
aI16
aI17
asS'./NVD/CVE_2006_2448_VULN_sys_debug_setcontext.c'
p527
(lp528
I14
asS'./NVD/CVE_2013_7023_VULN_ff_combine_frame.c'
p529
(lp530
I25
aI40
asS'./NVD/CVE-2015-3906_VULN_logcat_log.c'
p531
(lp532
I2
aI27
aI32
aI37
asS'./NVD/CVE_2014_2283_VULN_rlc_frag_create.c'
p533
(lp534
I7
asS'./NVD/CVE_2009_3888_VULN_do_mmap_pgoff.c'
p535
(lp536
I130
aI195
aI207
aI209
asS'./NVD/CVE-2016-5400_VULN_airspy_probe.c'
p537
(lp538
I98
aI107
asS'./NVD/CVE_2010_2537_VULN_btrfs_ioctl_clone.c'
p539
(lp540
I31
aI84
asS'./NVD/CVE_2014_5471_VULN_parse_rock_ridge_inode.c'
p541
(lp542
I3
aI11
asS'./NVD/CVE-2015-4504_VULN_lut_inverse_interp16.c'
p543
(lp544
I36
aI38
aI42
aI43
aI45
aI46
aI60
asS'./NVD/CVE_2014_3184_VULN_ch_report_fixup.c'
p545
(lp546
I4
asS'./NVD/CVE_2010_2519_VULN_Mac_Read_POST_Resource.c'
p547
(lp548
I60
asS'./NVD/CVE_2015_1158_VULN_send_document.c'
p549
(lp550
I1
aI42
aI44
aI48
aI50
aI64
aI66
aI74
aI76
aI86
aI88
aI92
aI94
aI102
aI104
aI113
aI116
aI142
aI144
aI156
aI159
aI168
aI170
aI175
aI177
aI191
aI193
aI204
aI206
aI214
aI216
aI240
aI243
aI251
aI253
aI287
aI289
aI317
aI319
aI327
aI329
aI384
aI386
aI402
aI404
asS'./NVD/CVE_2010_1224_VULN_ast_append_ha.c'
p551
(lp552
I31
asS'./NVD/CVE_2010_0003_VULN_print_fatal_signal.c'
p553
(lp554
I13
asS'./NVD/CVE_2014_5163_VULN_decode_apn.c'
p555
(lp556
I8
asS'./NVD/CVE_2008_3792_VULN_sctp_getsockopt_active_key.c'
p557
(lp558
I10
asS'./NVD/CVE_2014_2283_VULN_rlc_sdu_create.c'
p559
(lp560
I6
asS'./NVD/CVE_2010_0741_VULN_virtio_net_bad_features.c'
p561
(lp562
I8
aI9
aI10
aI11
asS'./NVD/CVE_2014_1438_VULN_restore_fpu_checking.c'
p563
(lp564
I6
aI7
aI8
aI9
aI10
aI11
asS'./NVD/CVE_2015_1158_VULN_add_job.c'
p565
(lp566
I1
aI43
aI45
aI56
aI58
aI78
aI80
aI87
aI89
aI99
aI103
aI134
aI136
aI196
aI243
aI245
aI288
aI290
aI312
aI314
aI377
aI395
aI396
aI397
aI404
aI406
aI418
aI420
aI426
aI429
aI431
aI433
aI434
aI435
aI436
aI437
aI438
aI439
aI440
aI441
aI442
aI443
aI444
aI445
aI446
aI448
aI450
aI451
aI452
aI454
aI455
aI459
aI460
aI463
aI464
aI465
aI467
aI468
aI469
aI472
aI476
aI479
aI494
aI496
aI528
aI530
aI555
aI557
aI568
aI569
aI574
aI576
aI591
aI593
aI595
aI608
aI610
aI612
aI645
aI647
aI652
aI653
aI659
aI663
aI682
aI684
aI706
aI708
aI724
aI726
aI730
aI732
aI735
aI737
aI739
aI743
aI745
asS'./NVD/CVE_2009_1243_VULN_udp_get_next.c'
p567
(lp568
I11
asS'./NVD/CVE_2014_3640_VULN_udp_input.c'
p569
(lp570
I90
asS'./NVD/CVE_2014_2282_VULN_dissect_protocol_data_parameter.c'
p571
(lp572
I7
asS'./NVD/CVE_2015_6242_VULN_wmem_block_split_free_chunk.c'
p573
(lp574
I21
aI58
aI63
asS'./NVD/CVE_2009_3547_VULN_pipe_write_open.c'
p575
(lp576
I5
aI8
asS'./NVD/CVE_2014_4174_VULN_libpcap_dump.c'
p577
(lp578
I21
aI22
asS'./NVD/CVE_2014_2286_VULN_parse_cookies.c'
p579
(lp580
I6
asS'./NVD/CVE_2008_3275_VULN___lookup_hash.c'
p581
(lp582
I23
asS'./NVD/CVE_2010_2431_VULN_cupsFileOpen.c'
p583
(lp584
I33
aI41
asS'./NVD/CVE-2015-5154_VULN_ide_data_writew.c'
p585
(lp586
I15
asS'./NVD/CVE_2009_1439_VULN_CIFSTCon.c'
p587
(lp588
I130
asS'./NVD/CVE_2010_2521_VULN_nfsd4_decode_compound.c'
p589
(lp590
I68
aI71
asS'./NVD/CVE_2015_0562_VULN_set_dnet_address.c'
p591
(lp592
I7
asS'./NVD/CVE_2014_5161_VULN_dissect_log.c'
p593
(lp594
I17
aI22
aI24
asS'./NVD/CVE_2008_3833_VULN_generic_file_splice_write.c'
p595
(lp596
I10
aI19
asS'./NVD/CVE_2014_2286_VULN_ast_http_manid_from_vars.c'
p597
(lp598
I13
aI14
asS'./NVD/CVE_2006_2445_VULN_run_posix_cpu_timers.c'
p599
(lp600
I19
aI21
aI23
aI25
aI27
aI28
aI29
aI30
aI31
aI32
aI34
aI35
aI36
aI37
aI38
aI39
aI40
aI41
aI42
aI45
aI50
aI57
aI61
asS'./NVD/CVE_2015_6654_VULN_xenmem_add_to_physmap_one.c'
p601
(lp602
I82
asS'./NVD/CVE_2013_5593_VULN_nsComboboxControlFrame__AbsolutelyPositionDropDown.c'
p603
(lp604
I38
aI39
aI40
asS'./NVD/CVE_2009_0269_VULN_ecryptfs_follow_link.c'
p605
(lp606
I18
asS'./NVD/CVE_2009_0787_VULN_ecryptfs_write_metadata_to_xattr.c'
p607
(lp608
I3
asS'./NVD/CVE_2014_5162_VULN_read_new_line.c'
p609
(lp610
I19
aI24
asS'./NVD/CVE_2013_6449_VULN_ssl_get_algorithm2.c'
p611
(lp612
I6
asS'./NVD/CVE_2014_3537_VULN_get_file.c'
p613
(lp614
I69
aI81
aI86
aI129
aI135
aI143
aI151
aI159
aI165
asS'./NVD/CVE_2010_3432_VULN_sctp_packet_config.c'
p615
(lp616
I9
asS'./NVD/CVE_2014_1498_VULN_nsConvertToActualKeyGenParams.c'
p617
(lp618
I102
asS'./NVD/CVE_2014_1508_VULN_nsDisplayNotation__Paint.c'
p619
(lp620
I67
asS'./NVD/CVE_2005_2800_VULN_dev_seq_start.c'
p621
(lp622
I6
aI8
aI12
aI14
aI15
aI16
asS'./NVD/CVE_2010_0307_VULN_load_elf_binary.c'
p623
(lp624
I78
aI103
aI104
aI105
aI106
aI107
aI108
aI109
aI110
aI111
aI112
aI113
aI114
aI115
aI116
aI117
aI118
aI119
aI120
aI121
aI122
aI129
aI133
aI171
aI172
aI173
aI187
aI193
aI237
aI241
aI295
aI299
aI334
aI354
aI357
aI372
aI426
aI435
asS'./NVD/CVE_2009_2484_VULN_Win32AddConnection.c'
p625
(lp626
I41
asS'./NVD/CVE_2013_5601_VULN_nsEventListenerManager__CompileEventHandlerInternal.c'
p627
(lp628
I122
asS'./NVD/CVE_2009_3080_VULN_gdth_read_event.c'
p629
(lp630
I15
asS'./NVD/CVE_2015_3339_VULN_prepare_binprm.c'
p631
(lp632
I3
aI4
aI8
aI9
aI10
aI12
aI13
aI14
aI15
aI16
aI17
aI18
aI19
aI22
aI23
aI24
aI25
aI26
aI27
aI28
aI29
aI30
asS'./NVD/CVE-2015-6526_VULN_perf_callchain_user_64.c'
p633
(lp634
I16
asS'./NVD/CVE_2006_5751_VULN_get_fdb_entries.c'
p635
(lp636
I6
aI8
aI9
asS'./NVD/CVE_2015_1158_VULN_release_job.c'
p637
(lp638
I1
aI20
aI22
aI26
aI28
aI42
aI44
aI52
aI54
aI64
aI66
aI70
aI72
aI78
aI80
aI84
aI86
aI92
aI94
aI103
aI105
aI113
aI115
aI116
aI123
aI125
asS'./NVD/CVE_2010_3429_VULN_flic_decode_frame_8BPP.c'
p639
(lp640
I36
aI130
aI145
aI185
aI193
aI226
aI236
asS'./NVD/CVE_2013_5641_VULN_handle_incoming.c'
p641
(lp642
I276
asS'./NVD/CVE_2014_1684_VULN_ASF_ReadObject_file_properties.c'
p643
(lp644
I18
aI19
asS'./NVD/CVE_2009_0946_VULN_cff_charset_load.c'
p645
(lp646
I44
asS'./NVD/CVE_2014_1487_VULN_ReportLoadError.c'
p647
(lp648
I26
aI27
asS'./NVD/CVE_2014_0160_VULN_dtls1_process_heartbeat.c'
p649
(lp650
I9
aI10
aI11
aI12
aI28
aI39
aI43
asS'./NVD/CVE-2015-0811_VULN_read_tag_lutType.c'
p651
(lp652
I56
aI57
aI58
asS'./NVD/CVE-2015-3209_VULN_pcnet_transmit.c'
p653
(lp654
I7
aI33
aI34
aI35
aI36
aI37
aI38
aI39
aI40
aI41
aI43
aI45
aI46
aI47
aI48
aI50
aI51
aI55
aI56
aI57
aI72
aI84
asS'./NVD/CVE-2016-7094_VULN_hvm_translate_linear_addr.c'
p655
(lp656
I9
asS'./NVD/CVE_2010_2068_VULN_ap_proxy_http_process_response.c'
p657
(lp658
I51
aI67
asS'./NVD/CVE_2008_2750_VULN_pppol2tp_recvmsg.c'
p659
(lp660
I18
aI19
aI20
aI21
aI22
aI23
aI25
asS'./NVD/CVE_2010_2806_VULN_t42_parse_sfnts.c'
p661
(lp662
I96
aI97
asS'./NVD/CVE_2009_1389_VULN_rtl_hw_start_8169.c'
p663
(lp664
I21
asS'./NVD/CVE_2015_4001_VULN_oz_hcd_get_desc_cnf.c'
p665
(lp666
I2
aI14
aI15
asS'./NVD/CVE_2009_1385_VULN_e1000_clean_rx_irq.c'
p667
(lp668
I51
asS'./NVD/CVE_2013_6378_VULN_lbs_debugfs_write.c'
p669
(lp670
I12
asS'./NVD/CVE_2009_0946_VULN_tt_cmap10_validate.c'
p671
(lp672
I15
asS'./NVD/CVE_2006_1855_VULN_choose_new_parent.c'
p673
(lp674
I9
aI10
asS'./NVD/CVE-2015-8663_VULN_ff_get_buffer.c'
p675
(lp676
I4
asS'./NVD/CVE_2014_2523_VULN_dccp_new.c'
p677
(lp678
I10
asS'./NVD/CVE_2005_4635_VULN_nl_fib_input.c'
p679
(lp680
I6
aI10
asS'./NVD/CVE_2010_3772_VULN_nsTreeContentView__ContentInserted.c'
p681
(lp682
I50
aI54
aI81
aI82
aI83
aI84
aI85
asS'./NVD/CVE-2015-1333_VULN___key_link_end.c'
p683
(lp684
I13
aI14
aI15
asS'./NVD/CVE_2014_5163_VULN_de_sm_apn.c'
p685
(lp686
I11
asS'./NVD/CVE-2016-9103_VULN_v9fs_xattrcreate.c'
p687
(lp688
I34
asS'./NVD/CVE_2006_2446_VULN_kfree_skb.c'
p689
(lp690
I3
aI4
asS'./NVD/CVE_2009_0747_VULN_ext4_isize.c'
p691
(lp692
I3
aI4
asS'./NVD/CVE_2010_2538_VULN_btrfs_ioctl_clone.c'
p693
(lp694
I31
aI84
asS'./NVD/CVE-2015-2710_VULN_IsNonEmptyTextFrame.c'
p695
(lp696
I5
asS'./NVD/CVE_2006_2778_VULN_nsCrypto__SignText.c'
p697
(lp698
I79
asS'./NVD/CVE_2013_6671_VULN_nsHtml5TreeOperation__Perform.c'
p699
(lp700
I15
asS'./NVD/CVE_2013_7100_VULN_unpacksms16.c'
p701
(lp702
I21
asS'./NVD/CVE_2010_2954_VULN_irda_bind.c'
p703
(lp704
I44
aI45
asS'./NVD/CVE_2010_0437_VULN_ip6_dst_lookup_tail.c'
p705
(lp706
I10
aI11
aI19
aI23
aI24
aI25
aI26
aI27
aI28
aI29
aI30
aI31
aI32
aI33
aI34
aI36
aI37
aI39
aI40
aI41
aI43
aI44
aI45
aI46
aI47
aI48
aI49
aI50
aI51
aI52
aI53
aI63
asS'./NVD/CVE_2004_1151_VULN_sys32_ni_syscall.c'
p707
(lp708
I4
aI5
aI6
aI7
aI8
asS'./NVD/CVE_2014_2283_VULN_rlc_is_duplicate.c'
p709
(lp710
I13
asS'./NVD/CVE_2008_3275_VULN_real_lookup.c'
p711
(lp712
I23
asS'./NVD/CVE_2009_3612_VULN_tcf_fill_node.c'
p713
(lp714
I11
aI12
asS'./NVD/CVE_2013_4932_VULN_elem_tlv.c'
p715
(lp716
I25
aI27
aI28
aI42
asS'./NVD/CVE-2016-8658_VULN_brcmf_cfg80211_start_ap.c'
p717
(lp718
I44
asS'./NVD/CVE_2014_5271_VULN_encode_frame.c'
p719
(lp720
I19
aI21
aI98
asS'./NVD/CVE-2014-5388_VULN_pci_read.c'
p721
(lp722
I7
asS'./NVD/CVE_2009_1389_VULN_rtl_hw_start_8101.c'
p723
(lp724
I35
asS'./NVD/CVE-2016-7042_VULN_proc_keys_show.c'
p725
(lp726
I8
asS'./NVD/CVE_2014_0155_VULN_ioapic_deliver.c'
p727
(lp728
I25
asS'./NVD/CVE-2016-9376_VULN_dissect_openflow_match_v5.c'
p729
(lp730
I21
asS'./NVD/CVE_2013_4933_VULN_netmon_open.c'
p731
(lp732
I167
asS'./NVD/CVE_2006_0035_VULN_netlink_rcv_skb.c'
p733
(lp734
I11
asS'./NVD/CVE_2013_4932_VULN_elem_lv_e.c'
p735
(lp736
I20
aI21
aI31
asS'./NVD/CVE-2015-8961_VULN___ext4_journal_stop.c'
p737
(lp738
I13
aI14
aI18
asS'./NVD/CVE-2016-2328_VULN_bayer_to_yv12_wrapper.c'
p739
(lp740
I33
aI47
asS'./NVD/CVE_2015_3811_VULN_decompressed_entry.c'
p741
(lp742
I3
asS'./NVD/CVE_2009_0746_VULN_make_indexed_dir.c'
p743
(lp744
I21
aI38
aI39
aI40
aI41
aI42
asS'./NVD/CVE_2005_3356_VULN_sys_mq_open.c'
p745
(lp746
I5
aI26
aI27
aI32
aI33
aI34
aI36
aI47
asS'./NVD/CVE_2009_4021_VULN_fuse_direct_io.c'
p747
(lp748
I46
aI52
asS'./NVD/CVE-2017-5547_VULN_k90_backlight_get.c'
p749
(lp750
I9
aI19
aI26
aI28
asS'./NVD/CVE_2005_3356_VULN_do_open.c'
p751
(lp752
I5
aI7
aI8
aI10
aI13
aI15
aI16
aI18
asS'./NVD/CVE_2013_7008_VULN_decode_slice_header.c'
p753
(lp754
I257
aI266
aI276
asS'./NVD/CVE_2014_2894_VULN_cmd_smart.c'
p755
(lp756
I154
asS'./NVD/CVE-2016-7180_VULN_dissect_ipmi_trace.c'
p757
(lp758
I26
asS'./NVD/CVE_2009_1242_VULN_vmx_set_msr.c'
p759
(lp760
I8
asS'./NVD/CVE_2010_3084_VULN_niu_get_ethtool_tcam_all.c'
p761
(lp762
I8
aI16
aI27
aI28
aI29
aI30
aI33
asS'./NVD/CVE_2007_1217_VULN_bufprint.c'
p763
(lp764
I5
aI7
asS'./NVD/CVE_2008_5713_VULN___qdisc_run.c'
p765
(lp766
I3
aI4
aI6
asS'./NVD/CVE_2013_7339_VULN_rds_ib_laddr_check.c'
p767
(lp768
I22
asS'./NVD/CVE-2015-5307_VULN_update_exception_bitmap.c'
p769
(lp770
I6
asS'./NVD/CVE_2014_3182_VULN_logi_dj_recv_add_djhid_device.c'
p771
(lp772
I20
aI23
aI24
aI25
aI26
aI27
aI33
aI40
aI82
asS'./NVD/CVE_2009_3547_VULN_pipe_read_open.c'
p773
(lp774
I4
aI5
aI7
aI10
asS'./NVD/CVE_2009_4138_VULN_ohci_queue_iso_receive_packet_per_buffer.c'
p775
(lp776
I7
aI46
asS'./NVD/CVE_2014_3184_VULN_kye_report_fixup.c'
p777
(lp778
I13
asS'./NVD/CVE-2016-7170_VULN_vmsvga_fifo_run.c'
p779
(lp780
I84
asS'./NVD/CVE-2016-2327_VULN_apng_encode_frame.c'
p781
(lp782
I61
aI62
aI74
aI75
asS'./NVD/CVE_2014_2286_VULN_ast_http_get_cookies.c'
p783
(lp784
I4
aI8
aI9
aI10
aI13
asS'./NVD/CVE_2006_6333_VULN_tr_rx.c'
p785
(lp786
I154
asS'./NVD/CVE_2009_0787_VULN_ecryptfs_write_metadata.c'
p787
(lp788
I22
aI28
aI29
aI36
aI37
aI39
aI40
aI47
asS'./NVD/CVE_2008_3792_VULN_sctp_getsockopt_local_auth_chunks.c'
p789
(lp790
I8
aI11
aI14
aI15
aI28
aI31
aI32
aI33
aI35
aI36
aI37
asS'./NVD/CVE_2010_3429_VULN_flic_decode_frame_15_16BPP.c'
p791
(lp792
I30
aI91
aI97
aI135
aI145
aI188
aI199
asS'./NVD/CVE_2013_5719_VULN_dissect_r3_cmdmfg_forceoptions.c'
p793
(lp794
I4
aI5
aI13
asS'./NVD/CVE-2016-5106_VULN_megasas_dcmd_set_properties.c'
p795
(lp796
I11
asS'./NVD/CVE_2009_2691_VULN_mm_for_maps.c'
p797
(lp798
I5
aI7
aI8
aI9
aI10
aI11
aI12
aI13
aI15
aI16
aI17
aI18
aI19
asS'./NVD/CVE-2015-4651_VULN_dissect_wccp2_command_extension.c'
p799
(lp800
I66
aI67
aI68
aI69
aI70
aI71
aI72
asS'./NVD/CVE_2007_1000_VULN_do_ipv6_getsockopt.c'
p801
(lp802
I135
aI136
asS'./NVD/CVE_2013_7021_VULN_filter_frame.c'
p803
(lp804
I28
asS'./NVD/CVE_2008_3792_VULN_sctp_getsockopt_peer_auth_chunks.c'
p805
(lp806
I8
aI11
aI14
aI15
aI26
aI29
aI30
aI31
aI33
aI34
aI35
asS'./NVD/CVE_2008_3527_VULN_sysenter_setup.c'
p807
(lp808
I3
asS'./NVD/CVE_2005_4618_VULN_sysctl_string.c'
p809
(lp810
I12
aI14
aI19
aI20
aI21
aI23
aI31
asS'./NVD/CVE_2010_2960_VULN_keyctl_session_to_parent.c'
p811
(lp812
I58
asS'./NVD/CVE_2009_2844_VULN_cmp_ies.c'
p813
(lp814
I9
asS'./NVD/CVE_2010_1088_VULN___link_path_walk.c'
p815
(lp816
I129
aI130
asS'./NVD/CVE_2008_3527_VULN_arch_setup_additional_pages.c'
p817
(lp818
I3
aI12
aI15
aI16
aI17
aI18
aI21
aI22
aI23
aI24
aI31
aI32
aI33
aI34
aI35
aI37
aI38
aI39
aI40
aI46
asS'./NVD/CVE_2015_0823_VULN_ots_gasp_parse.c'
p819
(lp820
I15
asS'./NVD/CVE_2013_4932_VULN_elem_v.c'
p821
(lp822
I16
aI20
aI31
aI33
aI34
asS'./NVD/CVE-2016-2857_VULN_net_checksum_calculate.c'
p823
(lp824
I20
aI23
aI24
asS'./NVD/CVE_2009_1961_VULN_generic_file_splice_write.c'
p825
(lp826
I15
aI17
aI19
asS'./NVD/CVE_2005_2800_VULN_dev_seq_next.c'
p827
(lp828
I3
asS'./NVD/CVE_2014_4654_VULN_snd_ctl_elem_add.c'
p829
(lp830
I11
aI12
aI21
aI22
aI23
aI24
aI25
aI26
aI27
aI28
aI29
aI30
aI31
aI33
aI34
aI35
aI41
aI84
aI93
aI101
aI107
aI108
aI110
aI112
asS'./NVD/CVE_2009_1897_VULN_tun_chr_poll.c'
p831
(lp832
I5
asS'./NVD/CVE_2013_7026_VULN_shm_destroy.c'
p833
(lp834
I6
aI7
aI9
aI10
aI11
asS'./NVD/CVE_2014_1510_VULN_nsGlobalWindow__SecurityCheckURL.c'
p835
(lp836
I5
aI8
aI13
aI14
asS'./NVD/CVE_2010_2962_VULN_i915_gem_gtt_pwrite_fast.c'
p837
(lp838
I16
aI17
asS'./NVD/CVE_2014_2523_VULN_dccp_error.c'
p839
(lp840
I11
asS'./NVD/CVE_2014_3523_VULN_winnt_accept.c'
p841
(lp842
I324
asS'./NVD/CVE_2013_7265_VULN_pn_recvmsg.c'
p843
(lp844
I14
aI15
aI37
aI38
asS'./NVD/CVE_2013_7017_VULN_ff_jpeg2000_cleanup.c'
p845
(lp846
I12
aI13
aI14
aI15
as.